
UMeterLCD.elf:     file format elf32-littlearm

Sections:
Idx Name          Size      VMA       LMA       File off  Algn
  0 .isr_vector   000000b8  08000000  08000000  00001000  2**0
                  CONTENTS, ALLOC, LOAD, READONLY, DATA
  1 .text         00001808  080000b8  080000b8  000010b8  2**2
                  CONTENTS, ALLOC, LOAD, READONLY, CODE
  2 .rodata       00000040  080018c0  080018c0  000028c0  2**2
                  CONTENTS, ALLOC, LOAD, READONLY, DATA
  3 .ARM.extab    00000000  08001900  08001900  0000300c  2**0
                  CONTENTS
  4 .ARM          00000000  08001900  08001900  0000300c  2**0
                  CONTENTS
  5 .preinit_array 00000000  08001900  08001900  0000300c  2**0
                  CONTENTS, ALLOC, LOAD, DATA
  6 .init_array   00000004  08001900  08001900  00002900  2**2
                  CONTENTS, ALLOC, LOAD, DATA
  7 .fini_array   00000004  08001904  08001904  00002904  2**2
                  CONTENTS, ALLOC, LOAD, DATA
  8 .data         0000000c  20000000  08001908  00003000  2**2
                  CONTENTS, ALLOC, LOAD, DATA
  9 .bss          00000070  2000000c  08001914  0000300c  2**2
                  ALLOC
 10 ._user_heap_stack 00000604  2000007c  08001914  0000307c  2**0
                  ALLOC
 11 .ARM.attributes 00000028  00000000  00000000  0000300c  2**0
                  CONTENTS, READONLY
 12 .comment      00000043  00000000  00000000  00003034  2**0
                  CONTENTS, READONLY
 13 .debug_frame  0000006c  00000000  00000000  00003078  2**2
                  CONTENTS, READONLY, DEBUGGING, OCTETS

Disassembly of section .text:

080000b8 <__do_global_dtors_aux>:
 80000b8:	b510      	push	{r4, lr}
 80000ba:	4c06      	ldr	r4, [pc, #24]	@ (80000d4 <__do_global_dtors_aux+0x1c>)
 80000bc:	7823      	ldrb	r3, [r4, #0]
 80000be:	2b00      	cmp	r3, #0
 80000c0:	d107      	bne.n	80000d2 <__do_global_dtors_aux+0x1a>
 80000c2:	4b05      	ldr	r3, [pc, #20]	@ (80000d8 <__do_global_dtors_aux+0x20>)
 80000c4:	2b00      	cmp	r3, #0
 80000c6:	d002      	beq.n	80000ce <__do_global_dtors_aux+0x16>
 80000c8:	4804      	ldr	r0, [pc, #16]	@ (80000dc <__do_global_dtors_aux+0x24>)
 80000ca:	e000      	b.n	80000ce <__do_global_dtors_aux+0x16>
 80000cc:	bf00      	nop
 80000ce:	2301      	movs	r3, #1
 80000d0:	7023      	strb	r3, [r4, #0]
 80000d2:	bd10      	pop	{r4, pc}
 80000d4:	2000000c 	.word	0x2000000c
 80000d8:	00000000 	.word	0x00000000
 80000dc:	080018a8 	.word	0x080018a8

080000e0 <frame_dummy>:
 80000e0:	4b04      	ldr	r3, [pc, #16]	@ (80000f4 <frame_dummy+0x14>)
 80000e2:	b510      	push	{r4, lr}
 80000e4:	2b00      	cmp	r3, #0
 80000e6:	d003      	beq.n	80000f0 <frame_dummy+0x10>
 80000e8:	4903      	ldr	r1, [pc, #12]	@ (80000f8 <frame_dummy+0x18>)
 80000ea:	4804      	ldr	r0, [pc, #16]	@ (80000fc <frame_dummy+0x1c>)
 80000ec:	e000      	b.n	80000f0 <frame_dummy+0x10>
 80000ee:	bf00      	nop
 80000f0:	bd10      	pop	{r4, pc}
 80000f2:	46c0      	nop			@ (mov r8, r8)
 80000f4:	00000000 	.word	0x00000000
 80000f8:	20000010 	.word	0x20000010
 80000fc:	080018a8 	.word	0x080018a8

08000100 <__udivsi3>:
 8000100:	2200      	movs	r2, #0
 8000102:	0843      	lsrs	r3, r0, #1
 8000104:	428b      	cmp	r3, r1
 8000106:	d374      	bcc.n	80001f2 <__udivsi3+0xf2>
 8000108:	0903      	lsrs	r3, r0, #4
 800010a:	428b      	cmp	r3, r1
 800010c:	d35f      	bcc.n	80001ce <__udivsi3+0xce>
 800010e:	0a03      	lsrs	r3, r0, #8
 8000110:	428b      	cmp	r3, r1
 8000112:	d344      	bcc.n	800019e <__udivsi3+0x9e>
 8000114:	0b03      	lsrs	r3, r0, #12
 8000116:	428b      	cmp	r3, r1
 8000118:	d328      	bcc.n	800016c <__udivsi3+0x6c>
 800011a:	0c03      	lsrs	r3, r0, #16
 800011c:	428b      	cmp	r3, r1
 800011e:	d30d      	bcc.n	800013c <__udivsi3+0x3c>
 8000120:	22ff      	movs	r2, #255	@ 0xff
 8000122:	0209      	lsls	r1, r1, #8
 8000124:	ba12      	rev	r2, r2
 8000126:	0c03      	lsrs	r3, r0, #16
 8000128:	428b      	cmp	r3, r1
 800012a:	d302      	bcc.n	8000132 <__udivsi3+0x32>
 800012c:	1212      	asrs	r2, r2, #8
 800012e:	0209      	lsls	r1, r1, #8
 8000130:	d065      	beq.n	80001fe <__udivsi3+0xfe>
 8000132:	0b03      	lsrs	r3, r0, #12
 8000134:	428b      	cmp	r3, r1
 8000136:	d319      	bcc.n	800016c <__udivsi3+0x6c>
 8000138:	e000      	b.n	800013c <__udivsi3+0x3c>
 800013a:	0a09      	lsrs	r1, r1, #8
 800013c:	0bc3      	lsrs	r3, r0, #15
 800013e:	428b      	cmp	r3, r1
 8000140:	d301      	bcc.n	8000146 <__udivsi3+0x46>
 8000142:	03cb      	lsls	r3, r1, #15
 8000144:	1ac0      	subs	r0, r0, r3
 8000146:	4152      	adcs	r2, r2
 8000148:	0b83      	lsrs	r3, r0, #14
 800014a:	428b      	cmp	r3, r1
 800014c:	d301      	bcc.n	8000152 <__udivsi3+0x52>
 800014e:	038b      	lsls	r3, r1, #14
 8000150:	1ac0      	subs	r0, r0, r3
 8000152:	4152      	adcs	r2, r2
 8000154:	0b43      	lsrs	r3, r0, #13
 8000156:	428b      	cmp	r3, r1
 8000158:	d301      	bcc.n	800015e <__udivsi3+0x5e>
 800015a:	034b      	lsls	r3, r1, #13
 800015c:	1ac0      	subs	r0, r0, r3
 800015e:	4152      	adcs	r2, r2
 8000160:	0b03      	lsrs	r3, r0, #12
 8000162:	428b      	cmp	r3, r1
 8000164:	d301      	bcc.n	800016a <__udivsi3+0x6a>
 8000166:	030b      	lsls	r3, r1, #12
 8000168:	1ac0      	subs	r0, r0, r3
 800016a:	4152      	adcs	r2, r2
 800016c:	0ac3      	lsrs	r3, r0, #11
 800016e:	428b      	cmp	r3, r1
 8000170:	d301      	bcc.n	8000176 <__udivsi3+0x76>
 8000172:	02cb      	lsls	r3, r1, #11
 8000174:	1ac0      	subs	r0, r0, r3
 8000176:	4152      	adcs	r2, r2
 8000178:	0a83      	lsrs	r3, r0, #10
 800017a:	428b      	cmp	r3, r1
 800017c:	d301      	bcc.n	8000182 <__udivsi3+0x82>
 800017e:	028b      	lsls	r3, r1, #10
 8000180:	1ac0      	subs	r0, r0, r3
 8000182:	4152      	adcs	r2, r2
 8000184:	0a43      	lsrs	r3, r0, #9
 8000186:	428b      	cmp	r3, r1
 8000188:	d301      	bcc.n	800018e <__udivsi3+0x8e>
 800018a:	024b      	lsls	r3, r1, #9
 800018c:	1ac0      	subs	r0, r0, r3
 800018e:	4152      	adcs	r2, r2
 8000190:	0a03      	lsrs	r3, r0, #8
 8000192:	428b      	cmp	r3, r1
 8000194:	d301      	bcc.n	800019a <__udivsi3+0x9a>
 8000196:	020b      	lsls	r3, r1, #8
 8000198:	1ac0      	subs	r0, r0, r3
 800019a:	4152      	adcs	r2, r2
 800019c:	d2cd      	bcs.n	800013a <__udivsi3+0x3a>
 800019e:	09c3      	lsrs	r3, r0, #7
 80001a0:	428b      	cmp	r3, r1
 80001a2:	d301      	bcc.n	80001a8 <__udivsi3+0xa8>
 80001a4:	01cb      	lsls	r3, r1, #7
 80001a6:	1ac0      	subs	r0, r0, r3
 80001a8:	4152      	adcs	r2, r2
 80001aa:	0983      	lsrs	r3, r0, #6
 80001ac:	428b      	cmp	r3, r1
 80001ae:	d301      	bcc.n	80001b4 <__udivsi3+0xb4>
 80001b0:	018b      	lsls	r3, r1, #6
 80001b2:	1ac0      	subs	r0, r0, r3
 80001b4:	4152      	adcs	r2, r2
 80001b6:	0943      	lsrs	r3, r0, #5
 80001b8:	428b      	cmp	r3, r1
 80001ba:	d301      	bcc.n	80001c0 <__udivsi3+0xc0>
 80001bc:	014b      	lsls	r3, r1, #5
 80001be:	1ac0      	subs	r0, r0, r3
 80001c0:	4152      	adcs	r2, r2
 80001c2:	0903      	lsrs	r3, r0, #4
 80001c4:	428b      	cmp	r3, r1
 80001c6:	d301      	bcc.n	80001cc <__udivsi3+0xcc>
 80001c8:	010b      	lsls	r3, r1, #4
 80001ca:	1ac0      	subs	r0, r0, r3
 80001cc:	4152      	adcs	r2, r2
 80001ce:	08c3      	lsrs	r3, r0, #3
 80001d0:	428b      	cmp	r3, r1
 80001d2:	d301      	bcc.n	80001d8 <__udivsi3+0xd8>
 80001d4:	00cb      	lsls	r3, r1, #3
 80001d6:	1ac0      	subs	r0, r0, r3
 80001d8:	4152      	adcs	r2, r2
 80001da:	0883      	lsrs	r3, r0, #2
 80001dc:	428b      	cmp	r3, r1
 80001de:	d301      	bcc.n	80001e4 <__udivsi3+0xe4>
 80001e0:	008b      	lsls	r3, r1, #2
 80001e2:	1ac0      	subs	r0, r0, r3
 80001e4:	4152      	adcs	r2, r2
 80001e6:	0843      	lsrs	r3, r0, #1
 80001e8:	428b      	cmp	r3, r1
 80001ea:	d301      	bcc.n	80001f0 <__udivsi3+0xf0>
 80001ec:	004b      	lsls	r3, r1, #1
 80001ee:	1ac0      	subs	r0, r0, r3
 80001f0:	4152      	adcs	r2, r2
 80001f2:	1a41      	subs	r1, r0, r1
 80001f4:	d200      	bcs.n	80001f8 <__udivsi3+0xf8>
 80001f6:	4601      	mov	r1, r0
 80001f8:	4152      	adcs	r2, r2
 80001fa:	4610      	mov	r0, r2
 80001fc:	4770      	bx	lr
 80001fe:	e7ff      	b.n	8000200 <__udivsi3+0x100>
 8000200:	b501      	push	{r0, lr}
 8000202:	2000      	movs	r0, #0
 8000204:	f000 f806 	bl	8000214 <__aeabi_idiv0>
 8000208:	bd02      	pop	{r1, pc}
 800020a:	46c0      	nop			@ (mov r8, r8)

0800020c <__aeabi_uidivmod>:
 800020c:	2900      	cmp	r1, #0
 800020e:	d0f7      	beq.n	8000200 <__udivsi3+0x100>
 8000210:	e776      	b.n	8000100 <__udivsi3>
 8000212:	4770      	bx	lr

08000214 <__aeabi_idiv0>:
 8000214:	4770      	bx	lr
 8000216:	46c0      	nop			@ (mov r8, r8)

08000218 <displayWrite.constprop.0>:
 8000218:	4b16      	ldr	r3, [pc, #88]	@ (8000274 <displayWrite.constprop.0+0x5c>)
 800021a:	4917      	ldr	r1, [pc, #92]	@ (8000278 <displayWrite.constprop.0+0x60>)
 800021c:	695a      	ldr	r2, [r3, #20]
 800021e:	400a      	ands	r2, r1
 8000220:	615a      	str	r2, [r3, #20]
 8000222:	695a      	ldr	r2, [r3, #20]
 8000224:	4915      	ldr	r1, [pc, #84]	@ (800027c <displayWrite.constprop.0+0x64>)
 8000226:	400a      	ands	r2, r1
 8000228:	21ff      	movs	r1, #255	@ 0xff
 800022a:	615a      	str	r2, [r3, #20]
 800022c:	695a      	ldr	r2, [r3, #20]
 800022e:	0209      	lsls	r1, r1, #8
 8000230:	400a      	ands	r2, r1
 8000232:	4310      	orrs	r0, r2
 8000234:	6158      	str	r0, [r3, #20]
 8000236:	46c0      	nop			@ (mov r8, r8)
 8000238:	46c0      	nop			@ (mov r8, r8)
 800023a:	46c0      	nop			@ (mov r8, r8)
 800023c:	46c0      	nop			@ (mov r8, r8)
 800023e:	46c0      	nop			@ (mov r8, r8)
 8000240:	46c0      	nop			@ (mov r8, r8)
 8000242:	46c0      	nop			@ (mov r8, r8)
 8000244:	46c0      	nop			@ (mov r8, r8)
 8000246:	2280      	movs	r2, #128	@ 0x80
 8000248:	6959      	ldr	r1, [r3, #20]
 800024a:	0112      	lsls	r2, r2, #4
 800024c:	430a      	orrs	r2, r1
 800024e:	615a      	str	r2, [r3, #20]
 8000250:	46c0      	nop			@ (mov r8, r8)
 8000252:	46c0      	nop			@ (mov r8, r8)
 8000254:	46c0      	nop			@ (mov r8, r8)
 8000256:	46c0      	nop			@ (mov r8, r8)
 8000258:	46c0      	nop			@ (mov r8, r8)
 800025a:	46c0      	nop			@ (mov r8, r8)
 800025c:	46c0      	nop			@ (mov r8, r8)
 800025e:	46c0      	nop			@ (mov r8, r8)
 8000260:	46c0      	nop			@ (mov r8, r8)
 8000262:	46c0      	nop			@ (mov r8, r8)
 8000264:	46c0      	nop			@ (mov r8, r8)
 8000266:	46c0      	nop			@ (mov r8, r8)
 8000268:	46c0      	nop			@ (mov r8, r8)
 800026a:	46c0      	nop			@ (mov r8, r8)
 800026c:	46c0      	nop			@ (mov r8, r8)
 800026e:	46c0      	nop			@ (mov r8, r8)
 8000270:	4770      	bx	lr
 8000272:	46c0      	nop			@ (mov r8, r8)
 8000274:	50000400 	.word	0x50000400
 8000278:	ffffefff 	.word	0xffffefff
 800027c:	fffff7ff 	.word	0xfffff7ff

08000280 <clearDisplay>:
 8000280:	b5f8      	push	{r3, r4, r5, r6, r7, lr}
 8000282:	2680      	movs	r6, #128	@ 0x80
 8000284:	27b0      	movs	r7, #176	@ 0xb0
 8000286:	4c22      	ldr	r4, [pc, #136]	@ (8000310 <clearDisplay+0x90>)
 8000288:	4d22      	ldr	r5, [pc, #136]	@ (8000314 <clearDisplay+0x94>)
 800028a:	0176      	lsls	r6, r6, #5
 800028c:	0038      	movs	r0, r7
 800028e:	f7ff ffc3 	bl	8000218 <displayWrite.constprop.0>
 8000292:	2010      	movs	r0, #16
 8000294:	f7ff ffc0 	bl	8000218 <displayWrite.constprop.0>
 8000298:	2000      	movs	r0, #0
 800029a:	f7ff ffbd 	bl	8000218 <displayWrite.constprop.0>
 800029e:	2180      	movs	r1, #128	@ 0x80
 80002a0:	2283      	movs	r2, #131	@ 0x83
 80002a2:	20ff      	movs	r0, #255	@ 0xff
 80002a4:	0109      	lsls	r1, r1, #4
 80002a6:	6963      	ldr	r3, [r4, #20]
 80002a8:	4333      	orrs	r3, r6
 80002aa:	6163      	str	r3, [r4, #20]
 80002ac:	6963      	ldr	r3, [r4, #20]
 80002ae:	402b      	ands	r3, r5
 80002b0:	6163      	str	r3, [r4, #20]
 80002b2:	6963      	ldr	r3, [r4, #20]
 80002b4:	b29b      	uxth	r3, r3
 80002b6:	4383      	bics	r3, r0
 80002b8:	6163      	str	r3, [r4, #20]
 80002ba:	46c0      	nop			@ (mov r8, r8)
 80002bc:	46c0      	nop			@ (mov r8, r8)
 80002be:	46c0      	nop			@ (mov r8, r8)
 80002c0:	46c0      	nop			@ (mov r8, r8)
 80002c2:	46c0      	nop			@ (mov r8, r8)
 80002c4:	46c0      	nop			@ (mov r8, r8)
 80002c6:	46c0      	nop			@ (mov r8, r8)
 80002c8:	46c0      	nop			@ (mov r8, r8)
 80002ca:	46c0      	nop			@ (mov r8, r8)
 80002cc:	46c0      	nop			@ (mov r8, r8)
 80002ce:	46c0      	nop			@ (mov r8, r8)
 80002d0:	46c0      	nop			@ (mov r8, r8)
 80002d2:	46c0      	nop			@ (mov r8, r8)
 80002d4:	46c0      	nop			@ (mov r8, r8)
 80002d6:	46c0      	nop			@ (mov r8, r8)
 80002d8:	46c0      	nop			@ (mov r8, r8)
 80002da:	6963      	ldr	r3, [r4, #20]
 80002dc:	430b      	orrs	r3, r1
 80002de:	6163      	str	r3, [r4, #20]
 80002e0:	46c0      	nop			@ (mov r8, r8)
 80002e2:	46c0      	nop			@ (mov r8, r8)
 80002e4:	46c0      	nop			@ (mov r8, r8)
 80002e6:	46c0      	nop			@ (mov r8, r8)
 80002e8:	46c0      	nop			@ (mov r8, r8)
 80002ea:	46c0      	nop			@ (mov r8, r8)
 80002ec:	46c0      	nop			@ (mov r8, r8)
 80002ee:	46c0      	nop			@ (mov r8, r8)
 80002f0:	46c0      	nop			@ (mov r8, r8)
 80002f2:	46c0      	nop			@ (mov r8, r8)
 80002f4:	46c0      	nop			@ (mov r8, r8)
 80002f6:	46c0      	nop			@ (mov r8, r8)
 80002f8:	46c0      	nop			@ (mov r8, r8)
 80002fa:	46c0      	nop			@ (mov r8, r8)
 80002fc:	46c0      	nop			@ (mov r8, r8)
 80002fe:	46c0      	nop			@ (mov r8, r8)
 8000300:	3a01      	subs	r2, #1
 8000302:	2a00      	cmp	r2, #0
 8000304:	d1cf      	bne.n	80002a6 <clearDisplay+0x26>
 8000306:	3701      	adds	r7, #1
 8000308:	b2ff      	uxtb	r7, r7
 800030a:	2fb8      	cmp	r7, #184	@ 0xb8
 800030c:	d1be      	bne.n	800028c <clearDisplay+0xc>
 800030e:	bdf8      	pop	{r3, r4, r5, r6, r7, pc}
 8000310:	50000400 	.word	0x50000400
 8000314:	fffff7ff 	.word	0xfffff7ff

08000318 <oledInit>:
 8000318:	b510      	push	{r4, lr}
 800031a:	f7ff ffb1 	bl	8000280 <clearDisplay>
 800031e:	20ae      	movs	r0, #174	@ 0xae
 8000320:	f7ff ff7a 	bl	8000218 <displayWrite.constprop.0>
 8000324:	20d5      	movs	r0, #213	@ 0xd5
 8000326:	f7ff ff77 	bl	8000218 <displayWrite.constprop.0>
 800032a:	2080      	movs	r0, #128	@ 0x80
 800032c:	f7ff ff74 	bl	8000218 <displayWrite.constprop.0>
 8000330:	20a8      	movs	r0, #168	@ 0xa8
 8000332:	f7ff ff71 	bl	8000218 <displayWrite.constprop.0>
 8000336:	203f      	movs	r0, #63	@ 0x3f
 8000338:	f7ff ff6e 	bl	8000218 <displayWrite.constprop.0>
 800033c:	20d3      	movs	r0, #211	@ 0xd3
 800033e:	f7ff ff6b 	bl	8000218 <displayWrite.constprop.0>
 8000342:	2000      	movs	r0, #0
 8000344:	f7ff ff68 	bl	8000218 <displayWrite.constprop.0>
 8000348:	2040      	movs	r0, #64	@ 0x40
 800034a:	f7ff ff65 	bl	8000218 <displayWrite.constprop.0>
 800034e:	208d      	movs	r0, #141	@ 0x8d
 8000350:	f7ff ff62 	bl	8000218 <displayWrite.constprop.0>
 8000354:	2014      	movs	r0, #20
 8000356:	f7ff ff5f 	bl	8000218 <displayWrite.constprop.0>
 800035a:	20a1      	movs	r0, #161	@ 0xa1
 800035c:	f7ff ff5c 	bl	8000218 <displayWrite.constprop.0>
 8000360:	20c0      	movs	r0, #192	@ 0xc0
 8000362:	f7ff ff59 	bl	8000218 <displayWrite.constprop.0>
 8000366:	20da      	movs	r0, #218	@ 0xda
 8000368:	f7ff ff56 	bl	8000218 <displayWrite.constprop.0>
 800036c:	2012      	movs	r0, #18
 800036e:	f7ff ff53 	bl	8000218 <displayWrite.constprop.0>
 8000372:	2081      	movs	r0, #129	@ 0x81
 8000374:	f7ff ff50 	bl	8000218 <displayWrite.constprop.0>
 8000378:	20cf      	movs	r0, #207	@ 0xcf
 800037a:	f7ff ff4d 	bl	8000218 <displayWrite.constprop.0>
 800037e:	20d9      	movs	r0, #217	@ 0xd9
 8000380:	f7ff ff4a 	bl	8000218 <displayWrite.constprop.0>
 8000384:	20f1      	movs	r0, #241	@ 0xf1
 8000386:	f7ff ff47 	bl	8000218 <displayWrite.constprop.0>
 800038a:	20db      	movs	r0, #219	@ 0xdb
 800038c:	f7ff ff44 	bl	8000218 <displayWrite.constprop.0>
 8000390:	2040      	movs	r0, #64	@ 0x40
 8000392:	f7ff ff41 	bl	8000218 <displayWrite.constprop.0>
 8000396:	20a4      	movs	r0, #164	@ 0xa4
 8000398:	f7ff ff3e 	bl	8000218 <displayWrite.constprop.0>
 800039c:	20a6      	movs	r0, #166	@ 0xa6
 800039e:	f7ff ff3b 	bl	8000218 <displayWrite.constprop.0>
 80003a2:	2020      	movs	r0, #32
 80003a4:	f7ff ff38 	bl	8000218 <displayWrite.constprop.0>
 80003a8:	2000      	movs	r0, #0
 80003aa:	f7ff ff35 	bl	8000218 <displayWrite.constprop.0>
 80003ae:	2021      	movs	r0, #33	@ 0x21
 80003b0:	f7ff ff32 	bl	8000218 <displayWrite.constprop.0>
 80003b4:	2002      	movs	r0, #2
 80003b6:	f7ff ff2f 	bl	8000218 <displayWrite.constprop.0>
 80003ba:	2081      	movs	r0, #129	@ 0x81
 80003bc:	f7ff ff2c 	bl	8000218 <displayWrite.constprop.0>
 80003c0:	2022      	movs	r0, #34	@ 0x22
 80003c2:	f7ff ff29 	bl	8000218 <displayWrite.constprop.0>
 80003c6:	2000      	movs	r0, #0
 80003c8:	f7ff ff26 	bl	8000218 <displayWrite.constprop.0>
 80003cc:	2007      	movs	r0, #7
 80003ce:	f7ff ff23 	bl	8000218 <displayWrite.constprop.0>
 80003d2:	bd10      	pop	{r4, pc}

080003d4 <displayInit>:
 80003d4:	2280      	movs	r2, #128	@ 0x80
 80003d6:	4b34      	ldr	r3, [pc, #208]	@ (80004a8 <displayInit+0xd4>)
 80003d8:	00d2      	lsls	r2, r2, #3
 80003da:	6959      	ldr	r1, [r3, #20]
 80003dc:	b510      	push	{r4, lr}
 80003de:	430a      	orrs	r2, r1
 80003e0:	615a      	str	r2, [r3, #20]
 80003e2:	695a      	ldr	r2, [r3, #20]
 80003e4:	4931      	ldr	r1, [pc, #196]	@ (80004ac <displayInit+0xd8>)
 80003e6:	400a      	ands	r2, r1
 80003e8:	615a      	str	r2, [r3, #20]
 80003ea:	695a      	ldr	r2, [r3, #20]
 80003ec:	4930      	ldr	r1, [pc, #192]	@ (80004b0 <displayInit+0xdc>)
 80003ee:	400a      	ands	r2, r1
 80003f0:	615a      	str	r2, [r3, #20]
 80003f2:	2280      	movs	r2, #128	@ 0x80
 80003f4:	6959      	ldr	r1, [r3, #20]
 80003f6:	0052      	lsls	r2, r2, #1
 80003f8:	430a      	orrs	r2, r1
 80003fa:	615a      	str	r2, [r3, #20]
 80003fc:	695a      	ldr	r2, [r3, #20]
 80003fe:	492d      	ldr	r1, [pc, #180]	@ (80004b4 <displayInit+0xe0>)
 8000400:	400a      	ands	r2, r1
 8000402:	615a      	str	r2, [r3, #20]
 8000404:	46c0      	nop			@ (mov r8, r8)
 8000406:	46c0      	nop			@ (mov r8, r8)
 8000408:	46c0      	nop			@ (mov r8, r8)
 800040a:	46c0      	nop			@ (mov r8, r8)
 800040c:	46c0      	nop			@ (mov r8, r8)
 800040e:	46c0      	nop			@ (mov r8, r8)
 8000410:	46c0      	nop			@ (mov r8, r8)
 8000412:	46c0      	nop			@ (mov r8, r8)
 8000414:	46c0      	nop			@ (mov r8, r8)
 8000416:	46c0      	nop			@ (mov r8, r8)
 8000418:	46c0      	nop			@ (mov r8, r8)
 800041a:	46c0      	nop			@ (mov r8, r8)
 800041c:	46c0      	nop			@ (mov r8, r8)
 800041e:	46c0      	nop			@ (mov r8, r8)
 8000420:	46c0      	nop			@ (mov r8, r8)
 8000422:	46c0      	nop			@ (mov r8, r8)
 8000424:	2280      	movs	r2, #128	@ 0x80
 8000426:	6959      	ldr	r1, [r3, #20]
 8000428:	0092      	lsls	r2, r2, #2
 800042a:	430a      	orrs	r2, r1
 800042c:	615a      	str	r2, [r3, #20]
 800042e:	46c0      	nop			@ (mov r8, r8)
 8000430:	46c0      	nop			@ (mov r8, r8)
 8000432:	46c0      	nop			@ (mov r8, r8)
 8000434:	46c0      	nop			@ (mov r8, r8)
 8000436:	46c0      	nop			@ (mov r8, r8)
 8000438:	46c0      	nop			@ (mov r8, r8)
 800043a:	46c0      	nop			@ (mov r8, r8)
 800043c:	46c0      	nop			@ (mov r8, r8)
 800043e:	46c0      	nop			@ (mov r8, r8)
 8000440:	46c0      	nop			@ (mov r8, r8)
 8000442:	46c0      	nop			@ (mov r8, r8)
 8000444:	46c0      	nop			@ (mov r8, r8)
 8000446:	46c0      	nop			@ (mov r8, r8)
 8000448:	46c0      	nop			@ (mov r8, r8)
 800044a:	46c0      	nop			@ (mov r8, r8)
 800044c:	46c0      	nop			@ (mov r8, r8)
 800044e:	491a      	ldr	r1, [pc, #104]	@ (80004b8 <displayInit+0xe4>)
 8000450:	695a      	ldr	r2, [r3, #20]
 8000452:	400a      	ands	r2, r1
 8000454:	615a      	str	r2, [r3, #20]
 8000456:	46c0      	nop			@ (mov r8, r8)
 8000458:	46c0      	nop			@ (mov r8, r8)
 800045a:	46c0      	nop			@ (mov r8, r8)
 800045c:	46c0      	nop			@ (mov r8, r8)
 800045e:	46c0      	nop			@ (mov r8, r8)
 8000460:	46c0      	nop			@ (mov r8, r8)
 8000462:	46c0      	nop			@ (mov r8, r8)
 8000464:	46c0      	nop			@ (mov r8, r8)
 8000466:	46c0      	nop			@ (mov r8, r8)
 8000468:	46c0      	nop			@ (mov r8, r8)
 800046a:	46c0      	nop			@ (mov r8, r8)
 800046c:	46c0      	nop			@ (mov r8, r8)
 800046e:	46c0      	nop			@ (mov r8, r8)
 8000470:	46c0      	nop			@ (mov r8, r8)
 8000472:	46c0      	nop			@ (mov r8, r8)
 8000474:	46c0      	nop			@ (mov r8, r8)
 8000476:	f7ff ff4f 	bl	8000318 <oledInit>
 800047a:	4b10      	ldr	r3, [pc, #64]	@ (80004bc <displayInit+0xe8>)
 800047c:	691b      	ldr	r3, [r3, #16]
 800047e:	43db      	mvns	r3, r3
 8000480:	079b      	lsls	r3, r3, #30
 8000482:	d002      	beq.n	800048a <displayInit+0xb6>
 8000484:	20a7      	movs	r0, #167	@ 0xa7
 8000486:	f7ff fec7 	bl	8000218 <displayWrite.constprop.0>
 800048a:	20af      	movs	r0, #175	@ 0xaf
 800048c:	f7ff fec4 	bl	8000218 <displayWrite.constprop.0>
 8000490:	2201      	movs	r2, #1
 8000492:	4b0b      	ldr	r3, [pc, #44]	@ (80004c0 <displayInit+0xec>)
 8000494:	701a      	strb	r2, [r3, #0]
 8000496:	4b09      	ldr	r3, [pc, #36]	@ (80004bc <displayInit+0xe8>)
 8000498:	691b      	ldr	r3, [r3, #16]
 800049a:	421a      	tst	r2, r3
 800049c:	d000      	beq.n	80004a0 <displayInit+0xcc>
 800049e:	bd10      	pop	{r4, pc}
 80004a0:	b672      	cpsid	i
 80004a2:	f7ff feed 	bl	8000280 <clearDisplay>
 80004a6:	e7fe      	b.n	80004a6 <displayInit+0xd2>
 80004a8:	50000400 	.word	0x50000400
 80004ac:	fffff7ff 	.word	0xfffff7ff
 80004b0:	ffffefff 	.word	0xffffefff
 80004b4:	fffffdff 	.word	0xfffffdff
 80004b8:	fffffeff 	.word	0xfffffeff
 80004bc:	50000c00 	.word	0x50000c00
 80004c0:	20000074 	.word	0x20000074

080004c4 <SystemClock_Config>:
 80004c4:	b500      	push	{lr}
 80004c6:	b093      	sub	sp, #76	@ 0x4c
 80004c8:	2234      	movs	r2, #52	@ 0x34
 80004ca:	2100      	movs	r1, #0
 80004cc:	a805      	add	r0, sp, #20
 80004ce:	f001 f9bf 	bl	8001850 <memset>
 80004d2:	2100      	movs	r1, #0
 80004d4:	2210      	movs	r2, #16
 80004d6:	4668      	mov	r0, sp
 80004d8:	f001 f9ba 	bl	8001850 <memset>
 80004dc:	2080      	movs	r0, #128	@ 0x80
 80004de:	0080      	lsls	r0, r0, #2
 80004e0:	f000 fc82 	bl	8000de8 <HAL_PWREx_ControlVoltageScaling>
 80004e4:	2302      	movs	r3, #2
 80004e6:	9305      	str	r3, [sp, #20]
 80004e8:	930c      	str	r3, [sp, #48]	@ 0x30
 80004ea:	930d      	str	r3, [sp, #52]	@ 0x34
 80004ec:	332e      	adds	r3, #46	@ 0x2e
 80004ee:	930e      	str	r3, [sp, #56]	@ 0x38
 80004f0:	3b10      	subs	r3, #16
 80004f2:	930f      	str	r3, [sp, #60]	@ 0x3c
 80004f4:	2280      	movs	r2, #128	@ 0x80
 80004f6:	2380      	movs	r3, #128	@ 0x80
 80004f8:	0052      	lsls	r2, r2, #1
 80004fa:	029b      	lsls	r3, r3, #10
 80004fc:	9208      	str	r2, [sp, #32]
 80004fe:	9310      	str	r3, [sp, #64]	@ 0x40
 8000500:	2200      	movs	r2, #0
 8000502:	2380      	movs	r3, #128	@ 0x80
 8000504:	9209      	str	r2, [sp, #36]	@ 0x24
 8000506:	059b      	lsls	r3, r3, #22
 8000508:	3240      	adds	r2, #64	@ 0x40
 800050a:	a805      	add	r0, sp, #20
 800050c:	920a      	str	r2, [sp, #40]	@ 0x28
 800050e:	9311      	str	r3, [sp, #68]	@ 0x44
 8000510:	f000 fccc 	bl	8000eac <HAL_RCC_OscConfig>
 8000514:	2207      	movs	r2, #7
 8000516:	2302      	movs	r3, #2
 8000518:	9200      	str	r2, [sp, #0]
 800051a:	9301      	str	r3, [sp, #4]
 800051c:	2200      	movs	r2, #0
 800051e:	2300      	movs	r3, #0
 8000520:	2102      	movs	r1, #2
 8000522:	4668      	mov	r0, sp
 8000524:	9202      	str	r2, [sp, #8]
 8000526:	9303      	str	r3, [sp, #12]
 8000528:	f000 ff6c 	bl	8001404 <HAL_RCC_ClockConfig>
 800052c:	b013      	add	sp, #76	@ 0x4c
 800052e:	bd00      	pop	{pc}

08000530 <main>:
 8000530:	b530      	push	{r4, r5, lr}
 8000532:	2401      	movs	r4, #1
 8000534:	b08f      	sub	sp, #60	@ 0x3c
 8000536:	f000 f9e3 	bl	8000900 <HAL_Init>
 800053a:	f7ff ffc3 	bl	80004c4 <SystemClock_Config>
 800053e:	2214      	movs	r2, #20
 8000540:	2100      	movs	r1, #0
 8000542:	a808      	add	r0, sp, #32
 8000544:	f001 f984 	bl	8001850 <memset>
 8000548:	4b52      	ldr	r3, [pc, #328]	@ (8000694 <main+0x164>)
 800054a:	4853      	ldr	r0, [pc, #332]	@ (8000698 <main+0x168>)
 800054c:	6b5a      	ldr	r2, [r3, #52]	@ 0x34
 800054e:	2500      	movs	r5, #0
 8000550:	4322      	orrs	r2, r4
 8000552:	635a      	str	r2, [r3, #52]	@ 0x34
 8000554:	6b5a      	ldr	r2, [r3, #52]	@ 0x34
 8000556:	4022      	ands	r2, r4
 8000558:	9201      	str	r2, [sp, #4]
 800055a:	9a01      	ldr	r2, [sp, #4]
 800055c:	2202      	movs	r2, #2
 800055e:	6b59      	ldr	r1, [r3, #52]	@ 0x34
 8000560:	4311      	orrs	r1, r2
 8000562:	6359      	str	r1, [r3, #52]	@ 0x34
 8000564:	6b59      	ldr	r1, [r3, #52]	@ 0x34
 8000566:	400a      	ands	r2, r1
 8000568:	9202      	str	r2, [sp, #8]
 800056a:	9a02      	ldr	r2, [sp, #8]
 800056c:	2208      	movs	r2, #8
 800056e:	6b59      	ldr	r1, [r3, #52]	@ 0x34
 8000570:	4311      	orrs	r1, r2
 8000572:	6359      	str	r1, [r3, #52]	@ 0x34
 8000574:	6b5b      	ldr	r3, [r3, #52]	@ 0x34
 8000576:	4949      	ldr	r1, [pc, #292]	@ (800069c <main+0x16c>)
 8000578:	401a      	ands	r2, r3
 800057a:	9203      	str	r2, [sp, #12]
 800057c:	2200      	movs	r2, #0
 800057e:	9b03      	ldr	r3, [sp, #12]
 8000580:	f000 fbe4 	bl	8000d4c <HAL_GPIO_WritePin>
 8000584:	2194      	movs	r1, #148	@ 0x94
 8000586:	2201      	movs	r2, #1
 8000588:	4843      	ldr	r0, [pc, #268]	@ (8000698 <main+0x168>)
 800058a:	0189      	lsls	r1, r1, #6
 800058c:	f000 fbde 	bl	8000d4c <HAL_GPIO_WritePin>
 8000590:	20a0      	movs	r0, #160	@ 0xa0
 8000592:	2300      	movs	r3, #0
 8000594:	4a42      	ldr	r2, [pc, #264]	@ (80006a0 <main+0x170>)
 8000596:	a908      	add	r1, sp, #32
 8000598:	05c0      	lsls	r0, r0, #23
 800059a:	9208      	str	r2, [sp, #32]
 800059c:	9309      	str	r3, [sp, #36]	@ 0x24
 800059e:	950a      	str	r5, [sp, #40]	@ 0x28
 80005a0:	f000 fa24 	bl	80009ec <HAL_GPIO_Init>
 80005a4:	4b3f      	ldr	r3, [pc, #252]	@ (80006a4 <main+0x174>)
 80005a6:	483c      	ldr	r0, [pc, #240]	@ (8000698 <main+0x168>)
 80005a8:	9308      	str	r3, [sp, #32]
 80005aa:	2303      	movs	r3, #3
 80005ac:	a908      	add	r1, sp, #32
 80005ae:	9409      	str	r4, [sp, #36]	@ 0x24
 80005b0:	930b      	str	r3, [sp, #44]	@ 0x2c
 80005b2:	950a      	str	r5, [sp, #40]	@ 0x28
 80005b4:	f000 fa1a 	bl	80009ec <HAL_GPIO_Init>
 80005b8:	2380      	movs	r3, #128	@ 0x80
 80005ba:	4837      	ldr	r0, [pc, #220]	@ (8000698 <main+0x168>)
 80005bc:	019b      	lsls	r3, r3, #6
 80005be:	a908      	add	r1, sp, #32
 80005c0:	9308      	str	r3, [sp, #32]
 80005c2:	9409      	str	r4, [sp, #36]	@ 0x24
 80005c4:	950a      	str	r5, [sp, #40]	@ 0x28
 80005c6:	950b      	str	r5, [sp, #44]	@ 0x2c
 80005c8:	f000 fa10 	bl	80009ec <HAL_GPIO_Init>
 80005cc:	2280      	movs	r2, #128	@ 0x80
 80005ce:	20a0      	movs	r0, #160	@ 0xa0
 80005d0:	2300      	movs	r3, #0
 80005d2:	0092      	lsls	r2, r2, #2
 80005d4:	a908      	add	r1, sp, #32
 80005d6:	05c0      	lsls	r0, r0, #23
 80005d8:	9208      	str	r2, [sp, #32]
 80005da:	9309      	str	r3, [sp, #36]	@ 0x24
 80005dc:	940a      	str	r4, [sp, #40]	@ 0x28
 80005de:	f000 fa05 	bl	80009ec <HAL_GPIO_Init>
 80005e2:	2280      	movs	r2, #128	@ 0x80
 80005e4:	2388      	movs	r3, #136	@ 0x88
 80005e6:	20a0      	movs	r0, #160	@ 0xa0
 80005e8:	00d2      	lsls	r2, r2, #3
 80005ea:	035b      	lsls	r3, r3, #13
 80005ec:	a908      	add	r1, sp, #32
 80005ee:	05c0      	lsls	r0, r0, #23
 80005f0:	9208      	str	r2, [sp, #32]
 80005f2:	9309      	str	r3, [sp, #36]	@ 0x24
 80005f4:	940a      	str	r4, [sp, #40]	@ 0x28
 80005f6:	f000 f9f9 	bl	80009ec <HAL_GPIO_Init>
 80005fa:	2280      	movs	r2, #128	@ 0x80
 80005fc:	20a0      	movs	r0, #160	@ 0xa0
 80005fe:	2300      	movs	r3, #0
 8000600:	0212      	lsls	r2, r2, #8
 8000602:	a908      	add	r1, sp, #32
 8000604:	05c0      	lsls	r0, r0, #23
 8000606:	9208      	str	r2, [sp, #32]
 8000608:	9309      	str	r3, [sp, #36]	@ 0x24
 800060a:	940a      	str	r4, [sp, #40]	@ 0x28
 800060c:	f000 f9ee 	bl	80009ec <HAL_GPIO_Init>
 8000610:	2300      	movs	r3, #0
 8000612:	2203      	movs	r2, #3
 8000614:	4824      	ldr	r0, [pc, #144]	@ (80006a8 <main+0x178>)
 8000616:	a908      	add	r1, sp, #32
 8000618:	9208      	str	r2, [sp, #32]
 800061a:	9309      	str	r3, [sp, #36]	@ 0x24
 800061c:	940a      	str	r4, [sp, #40]	@ 0x28
 800061e:	f000 f9e5 	bl	80009ec <HAL_GPIO_Init>
 8000622:	2200      	movs	r2, #0
 8000624:	2100      	movs	r1, #0
 8000626:	2007      	movs	r0, #7
 8000628:	f000 f990 	bl	800094c <HAL_NVIC_SetPriority>
 800062c:	2007      	movs	r0, #7
 800062e:	f000 f9b7 	bl	80009a0 <HAL_NVIC_EnableIRQ>
 8000632:	2210      	movs	r2, #16
 8000634:	2100      	movs	r1, #0
 8000636:	a808      	add	r0, sp, #32
 8000638:	f001 f90a 	bl	8001850 <memset>
 800063c:	220c      	movs	r2, #12
 800063e:	2100      	movs	r1, #0
 8000640:	a804      	add	r0, sp, #16
 8000642:	f001 f905 	bl	8001850 <memset>
 8000646:	4c19      	ldr	r4, [pc, #100]	@ (80006ac <main+0x17c>)
 8000648:	4b19      	ldr	r3, [pc, #100]	@ (80006b0 <main+0x180>)
 800064a:	0020      	movs	r0, r4
 800064c:	6023      	str	r3, [r4, #0]
 800064e:	2380      	movs	r3, #128	@ 0x80
 8000650:	00db      	lsls	r3, r3, #3
 8000652:	60e3      	str	r3, [r4, #12]
 8000654:	2380      	movs	r3, #128	@ 0x80
 8000656:	6065      	str	r5, [r4, #4]
 8000658:	61a3      	str	r3, [r4, #24]
 800065a:	60a5      	str	r5, [r4, #8]
 800065c:	6125      	str	r5, [r4, #16]
 800065e:	6165      	str	r5, [r4, #20]
 8000660:	f000 ff98 	bl	8001594 <HAL_TIM_Base_Init>
 8000664:	2380      	movs	r3, #128	@ 0x80
 8000666:	a908      	add	r1, sp, #32
 8000668:	015b      	lsls	r3, r3, #5
 800066a:	0020      	movs	r0, r4
 800066c:	9308      	str	r3, [sp, #32]
 800066e:	f001 f809 	bl	8001684 <HAL_TIM_ConfigClockSource>
 8000672:	2200      	movs	r2, #0
 8000674:	2300      	movs	r3, #0
 8000676:	a904      	add	r1, sp, #16
 8000678:	0020      	movs	r0, r4
 800067a:	9204      	str	r2, [sp, #16]
 800067c:	9305      	str	r3, [sp, #20]
 800067e:	9506      	str	r5, [sp, #24]
 8000680:	f001 f8b2 	bl	80017e8 <HAL_TIMEx_MasterConfigSynchronization>
 8000684:	f7ff fea6 	bl	80003d4 <displayInit>
 8000688:	2101      	movs	r1, #1
 800068a:	2000      	movs	r0, #0
 800068c:	f000 fb82 	bl	8000d94 <HAL_PWR_EnterSLEEPMode>
 8000690:	e7fa      	b.n	8000688 <main+0x158>
 8000692:	46c0      	nop			@ (mov r8, r8)
 8000694:	40021000 	.word	0x40021000
 8000698:	50000400 	.word	0x50000400
 800069c:	00001aff 	.word	0x00001aff
 80006a0:	000009ff 	.word	0x000009ff
 80006a4:	00001fff 	.word	0x00001fff
 80006a8:	50000c00 	.word	0x50000c00
 80006ac:	20000028 	.word	0x20000028
 80006b0:	40012c00 	.word	0x40012c00

080006b4 <HAL_MspInit>:
 80006b4:	2201      	movs	r2, #1
 80006b6:	4b0a      	ldr	r3, [pc, #40]	@ (80006e0 <HAL_MspInit+0x2c>)
 80006b8:	b082      	sub	sp, #8
 80006ba:	6c19      	ldr	r1, [r3, #64]	@ 0x40
 80006bc:	4311      	orrs	r1, r2
 80006be:	6419      	str	r1, [r3, #64]	@ 0x40
 80006c0:	6c19      	ldr	r1, [r3, #64]	@ 0x40
 80006c2:	400a      	ands	r2, r1
 80006c4:	2180      	movs	r1, #128	@ 0x80
 80006c6:	9200      	str	r2, [sp, #0]
 80006c8:	9a00      	ldr	r2, [sp, #0]
 80006ca:	6bda      	ldr	r2, [r3, #60]	@ 0x3c
 80006cc:	0549      	lsls	r1, r1, #21
 80006ce:	430a      	orrs	r2, r1
 80006d0:	63da      	str	r2, [r3, #60]	@ 0x3c
 80006d2:	6bdb      	ldr	r3, [r3, #60]	@ 0x3c
 80006d4:	400b      	ands	r3, r1
 80006d6:	9301      	str	r3, [sp, #4]
 80006d8:	9b01      	ldr	r3, [sp, #4]
 80006da:	b002      	add	sp, #8
 80006dc:	4770      	bx	lr
 80006de:	46c0      	nop			@ (mov r8, r8)
 80006e0:	40021000 	.word	0x40021000

080006e4 <HAL_TIM_Base_MspInit>:
 80006e4:	4b08      	ldr	r3, [pc, #32]	@ (8000708 <HAL_TIM_Base_MspInit+0x24>)
 80006e6:	6802      	ldr	r2, [r0, #0]
 80006e8:	b082      	sub	sp, #8
 80006ea:	429a      	cmp	r2, r3
 80006ec:	d001      	beq.n	80006f2 <HAL_TIM_Base_MspInit+0xe>
 80006ee:	b002      	add	sp, #8
 80006f0:	4770      	bx	lr
 80006f2:	2180      	movs	r1, #128	@ 0x80
 80006f4:	4b05      	ldr	r3, [pc, #20]	@ (800070c <HAL_TIM_Base_MspInit+0x28>)
 80006f6:	0109      	lsls	r1, r1, #4
 80006f8:	6c1a      	ldr	r2, [r3, #64]	@ 0x40
 80006fa:	430a      	orrs	r2, r1
 80006fc:	641a      	str	r2, [r3, #64]	@ 0x40
 80006fe:	6c1b      	ldr	r3, [r3, #64]	@ 0x40
 8000700:	400b      	ands	r3, r1
 8000702:	9301      	str	r3, [sp, #4]
 8000704:	9b01      	ldr	r3, [sp, #4]
 8000706:	e7f2      	b.n	80006ee <HAL_TIM_Base_MspInit+0xa>
 8000708:	40012c00 	.word	0x40012c00
 800070c:	40021000 	.word	0x40021000

08000710 <NMI_Handler>:
 8000710:	e7fe      	b.n	8000710 <NMI_Handler>
 8000712:	46c0      	nop			@ (mov r8, r8)

08000714 <HardFault_Handler>:
 8000714:	e7fe      	b.n	8000714 <HardFault_Handler>
 8000716:	46c0      	nop			@ (mov r8, r8)

08000718 <SVC_Handler>:
 8000718:	4770      	bx	lr
 800071a:	46c0      	nop			@ (mov r8, r8)

0800071c <PendSV_Handler>:
 800071c:	4770      	bx	lr
 800071e:	46c0      	nop			@ (mov r8, r8)

08000720 <SysTick_Handler>:
 8000720:	b510      	push	{r4, lr}
 8000722:	f000 f901 	bl	8000928 <HAL_IncTick>
 8000726:	bd10      	pop	{r4, pc}

08000728 <EXTI4_15_IRQHandler>:
 8000728:	2080      	movs	r0, #128	@ 0x80
 800072a:	b570      	push	{r4, r5, r6, lr}
 800072c:	00c0      	lsls	r0, r0, #3
 800072e:	f000 fb17 	bl	8000d60 <HAL_GPIO_EXTI_IRQHandler>
 8000732:	23a0      	movs	r3, #160	@ 0xa0
 8000734:	4944      	ldr	r1, [pc, #272]	@ (8000848 <EXTI4_15_IRQHandler+0x120>)
 8000736:	05db      	lsls	r3, r3, #23
 8000738:	780a      	ldrb	r2, [r1, #0]
 800073a:	691b      	ldr	r3, [r3, #16]
 800073c:	2a00      	cmp	r2, #0
 800073e:	d000      	beq.n	8000742 <EXTI4_15_IRQHandler+0x1a>
 8000740:	e053      	b.n	80007ea <EXTI4_15_IRQHandler+0xc2>
 8000742:	2401      	movs	r4, #1
 8000744:	b29a      	uxth	r2, r3
 8000746:	0598      	lsls	r0, r3, #22
 8000748:	d54e      	bpl.n	80007e8 <EXTI4_15_IRQHandler+0xc0>
 800074a:	0ad2      	lsrs	r2, r2, #11
 800074c:	b2d8      	uxtb	r0, r3
 800074e:	4214      	tst	r4, r2
 8000750:	d111      	bne.n	8000776 <EXTI4_15_IRQHandler+0x4e>
 8000752:	22f0      	movs	r2, #240	@ 0xf0
 8000754:	0015      	movs	r5, r2
 8000756:	401d      	ands	r5, r3
 8000758:	421a      	tst	r2, r3
 800075a:	d149      	bne.n	80007f0 <EXTI4_15_IRQHandler+0xc8>
 800075c:	1c03      	adds	r3, r0, #0
 800075e:	2802      	cmp	r0, #2
 8000760:	d200      	bcs.n	8000764 <EXTI4_15_IRQHandler+0x3c>
 8000762:	2302      	movs	r3, #2
 8000764:	b2d8      	uxtb	r0, r3
 8000766:	4939      	ldr	r1, [pc, #228]	@ (800084c <EXTI4_15_IRQHandler+0x124>)
 8000768:	4a39      	ldr	r2, [pc, #228]	@ (8000850 <EXTI4_15_IRQHandler+0x128>)
 800076a:	7008      	strb	r0, [r1, #0]
 800076c:	6953      	ldr	r3, [r2, #20]
 800076e:	4839      	ldr	r0, [pc, #228]	@ (8000854 <EXTI4_15_IRQHandler+0x12c>)
 8000770:	4003      	ands	r3, r0
 8000772:	6153      	str	r3, [r2, #20]
 8000774:	e007      	b.n	8000786 <EXTI4_15_IRQHandler+0x5e>
 8000776:	2380      	movs	r3, #128	@ 0x80
 8000778:	4934      	ldr	r1, [pc, #208]	@ (800084c <EXTI4_15_IRQHandler+0x124>)
 800077a:	4a35      	ldr	r2, [pc, #212]	@ (8000850 <EXTI4_15_IRQHandler+0x128>)
 800077c:	7008      	strb	r0, [r1, #0]
 800077e:	6950      	ldr	r0, [r2, #20]
 8000780:	015b      	lsls	r3, r3, #5
 8000782:	4303      	orrs	r3, r0
 8000784:	6153      	str	r3, [r2, #20]
 8000786:	46c0      	nop			@ (mov r8, r8)
 8000788:	46c0      	nop			@ (mov r8, r8)
 800078a:	46c0      	nop			@ (mov r8, r8)
 800078c:	46c0      	nop			@ (mov r8, r8)
 800078e:	4b30      	ldr	r3, [pc, #192]	@ (8000850 <EXTI4_15_IRQHandler+0x128>)
 8000790:	4831      	ldr	r0, [pc, #196]	@ (8000858 <EXTI4_15_IRQHandler+0x130>)
 8000792:	695a      	ldr	r2, [r3, #20]
 8000794:	4002      	ands	r2, r0
 8000796:	615a      	str	r2, [r3, #20]
 8000798:	46c0      	nop			@ (mov r8, r8)
 800079a:	46c0      	nop			@ (mov r8, r8)
 800079c:	46c0      	nop			@ (mov r8, r8)
 800079e:	46c0      	nop			@ (mov r8, r8)
 80007a0:	20ff      	movs	r0, #255	@ 0xff
 80007a2:	695a      	ldr	r2, [r3, #20]
 80007a4:	7809      	ldrb	r1, [r1, #0]
 80007a6:	0200      	lsls	r0, r0, #8
 80007a8:	4002      	ands	r2, r0
 80007aa:	430a      	orrs	r2, r1
 80007ac:	615a      	str	r2, [r3, #20]
 80007ae:	46c0      	nop			@ (mov r8, r8)
 80007b0:	46c0      	nop			@ (mov r8, r8)
 80007b2:	46c0      	nop			@ (mov r8, r8)
 80007b4:	46c0      	nop			@ (mov r8, r8)
 80007b6:	46c0      	nop			@ (mov r8, r8)
 80007b8:	46c0      	nop			@ (mov r8, r8)
 80007ba:	46c0      	nop			@ (mov r8, r8)
 80007bc:	46c0      	nop			@ (mov r8, r8)
 80007be:	2280      	movs	r2, #128	@ 0x80
 80007c0:	6959      	ldr	r1, [r3, #20]
 80007c2:	0112      	lsls	r2, r2, #4
 80007c4:	430a      	orrs	r2, r1
 80007c6:	615a      	str	r2, [r3, #20]
 80007c8:	46c0      	nop			@ (mov r8, r8)
 80007ca:	46c0      	nop			@ (mov r8, r8)
 80007cc:	46c0      	nop			@ (mov r8, r8)
 80007ce:	46c0      	nop			@ (mov r8, r8)
 80007d0:	46c0      	nop			@ (mov r8, r8)
 80007d2:	46c0      	nop			@ (mov r8, r8)
 80007d4:	46c0      	nop			@ (mov r8, r8)
 80007d6:	46c0      	nop			@ (mov r8, r8)
 80007d8:	46c0      	nop			@ (mov r8, r8)
 80007da:	46c0      	nop			@ (mov r8, r8)
 80007dc:	46c0      	nop			@ (mov r8, r8)
 80007de:	46c0      	nop			@ (mov r8, r8)
 80007e0:	46c0      	nop			@ (mov r8, r8)
 80007e2:	46c0      	nop			@ (mov r8, r8)
 80007e4:	46c0      	nop			@ (mov r8, r8)
 80007e6:	46c0      	nop			@ (mov r8, r8)
 80007e8:	bd70      	pop	{r4, r5, r6, pc}
 80007ea:	3a01      	subs	r2, #1
 80007ec:	700a      	strb	r2, [r1, #0]
 80007ee:	e7fb      	b.n	80007e8 <EXTI4_15_IRQHandler+0xc0>
 80007f0:	2d10      	cmp	r5, #16
 80007f2:	d0b8      	beq.n	8000766 <EXTI4_15_IRQHandler+0x3e>
 80007f4:	22f8      	movs	r2, #248	@ 0xf8
 80007f6:	401a      	ands	r2, r3
 80007f8:	2ab0      	cmp	r2, #176	@ 0xb0
 80007fa:	d100      	bne.n	80007fe <EXTI4_15_IRQHandler+0xd6>
 80007fc:	e7b3      	b.n	8000766 <EXTI4_15_IRQHandler+0x3e>
 80007fe:	2820      	cmp	r0, #32
 8000800:	d017      	beq.n	8000832 <EXTI4_15_IRQHandler+0x10a>
 8000802:	0002      	movs	r2, r0
 8000804:	3a21      	subs	r2, #33	@ 0x21
 8000806:	2a01      	cmp	r2, #1
 8000808:	d910      	bls.n	800082c <EXTI4_15_IRQHandler+0x104>
 800080a:	22c0      	movs	r2, #192	@ 0xc0
 800080c:	4013      	ands	r3, r2
 800080e:	2b40      	cmp	r3, #64	@ 0x40
 8000810:	d0ea      	beq.n	80007e8 <EXTI4_15_IRQHandler+0xc0>
 8000812:	28db      	cmp	r0, #219	@ 0xdb
 8000814:	d8e8      	bhi.n	80007e8 <EXTI4_15_IRQHandler+0xc0>
 8000816:	28d2      	cmp	r0, #210	@ 0xd2
 8000818:	d80d      	bhi.n	8000836 <EXTI4_15_IRQHandler+0x10e>
 800081a:	288d      	cmp	r0, #141	@ 0x8d
 800081c:	d003      	beq.n	8000826 <EXTI4_15_IRQHandler+0xfe>
 800081e:	28a8      	cmp	r0, #168	@ 0xa8
 8000820:	d001      	beq.n	8000826 <EXTI4_15_IRQHandler+0xfe>
 8000822:	2881      	cmp	r0, #129	@ 0x81
 8000824:	d1e0      	bne.n	80007e8 <EXTI4_15_IRQHandler+0xc0>
 8000826:	2301      	movs	r3, #1
 8000828:	700b      	strb	r3, [r1, #0]
 800082a:	e7dd      	b.n	80007e8 <EXTI4_15_IRQHandler+0xc0>
 800082c:	2302      	movs	r3, #2
 800082e:	700b      	strb	r3, [r1, #0]
 8000830:	e7da      	b.n	80007e8 <EXTI4_15_IRQHandler+0xc0>
 8000832:	700c      	strb	r4, [r1, #0]
 8000834:	e7d8      	b.n	80007e8 <EXTI4_15_IRQHandler+0xc0>
 8000836:	23c6      	movs	r3, #198	@ 0xc6
 8000838:	302d      	adds	r0, #45	@ 0x2d
 800083a:	b2c0      	uxtb	r0, r0
 800083c:	33ff      	adds	r3, #255	@ 0xff
 800083e:	40c3      	lsrs	r3, r0
 8000840:	07db      	lsls	r3, r3, #31
 8000842:	d5d1      	bpl.n	80007e8 <EXTI4_15_IRQHandler+0xc0>
 8000844:	e7ef      	b.n	8000826 <EXTI4_15_IRQHandler+0xfe>
 8000846:	46c0      	nop			@ (mov r8, r8)
 8000848:	20000076 	.word	0x20000076
 800084c:	20000075 	.word	0x20000075
 8000850:	50000400 	.word	0x50000400
 8000854:	ffffefff 	.word	0xffffefff
 8000858:	fffff7ff 	.word	0xfffff7ff

0800085c <SystemInit>:
 800085c:	4770      	bx	lr
 800085e:	46c0      	nop			@ (mov r8, r8)

08000860 <Reset_Handler>:
 8000860:	480d      	ldr	r0, [pc, #52]	@ (8000898 <LoopForever+0x2>)
 8000862:	4685      	mov	sp, r0
 8000864:	f7ff fffa 	bl	800085c <SystemInit>
 8000868:	480c      	ldr	r0, [pc, #48]	@ (800089c <LoopForever+0x6>)
 800086a:	490d      	ldr	r1, [pc, #52]	@ (80008a0 <LoopForever+0xa>)
 800086c:	4a0d      	ldr	r2, [pc, #52]	@ (80008a4 <LoopForever+0xe>)
 800086e:	2300      	movs	r3, #0
 8000870:	e002      	b.n	8000878 <LoopCopyDataInit>

08000872 <CopyDataInit>:
 8000872:	58d4      	ldr	r4, [r2, r3]
 8000874:	50c4      	str	r4, [r0, r3]
 8000876:	3304      	adds	r3, #4

08000878 <LoopCopyDataInit>:
 8000878:	18c4      	adds	r4, r0, r3
 800087a:	428c      	cmp	r4, r1
 800087c:	d3f9      	bcc.n	8000872 <CopyDataInit>
 800087e:	4a0a      	ldr	r2, [pc, #40]	@ (80008a8 <LoopForever+0x12>)
 8000880:	4c0a      	ldr	r4, [pc, #40]	@ (80008ac <LoopForever+0x16>)
 8000882:	2300      	movs	r3, #0
 8000884:	e001      	b.n	800088a <LoopFillZerobss>

08000886 <FillZerobss>:
 8000886:	6013      	str	r3, [r2, #0]
 8000888:	3204      	adds	r2, #4

0800088a <LoopFillZerobss>:
 800088a:	42a2      	cmp	r2, r4
 800088c:	d3fb      	bcc.n	8000886 <FillZerobss>
 800088e:	f000 ffe7 	bl	8001860 <__libc_init_array>
 8000892:	f7ff fe4d 	bl	8000530 <main>

08000896 <LoopForever>:
 8000896:	e7fe      	b.n	8000896 <LoopForever>
 8000898:	20002000 	.word	0x20002000
 800089c:	20000000 	.word	0x20000000
 80008a0:	2000000c 	.word	0x2000000c
 80008a4:	08001908 	.word	0x08001908
 80008a8:	2000000c 	.word	0x2000000c
 80008ac:	2000007c 	.word	0x2000007c

080008b0 <ADC1_IRQHandler>:
 80008b0:	e7fe      	b.n	80008b0 <ADC1_IRQHandler>
	...

080008b4 <HAL_InitTick>:
 80008b4:	b570      	push	{r4, r5, r6, lr}
 80008b6:	4b0f      	ldr	r3, [pc, #60]	@ (80008f4 <HAL_InitTick+0x40>)
 80008b8:	0004      	movs	r4, r0
 80008ba:	7819      	ldrb	r1, [r3, #0]
 80008bc:	2900      	cmp	r1, #0
 80008be:	d101      	bne.n	80008c4 <HAL_InitTick+0x10>
 80008c0:	2001      	movs	r0, #1
 80008c2:	bd70      	pop	{r4, r5, r6, pc}
 80008c4:	20fa      	movs	r0, #250	@ 0xfa
 80008c6:	0080      	lsls	r0, r0, #2
 80008c8:	f7ff fc1a 	bl	8000100 <__udivsi3>
 80008cc:	4d0a      	ldr	r5, [pc, #40]	@ (80008f8 <HAL_InitTick+0x44>)
 80008ce:	0001      	movs	r1, r0
 80008d0:	6828      	ldr	r0, [r5, #0]
 80008d2:	f7ff fc15 	bl	8000100 <__udivsi3>
 80008d6:	f000 f86f 	bl	80009b8 <HAL_SYSTICK_Config>
 80008da:	2800      	cmp	r0, #0
 80008dc:	d1f0      	bne.n	80008c0 <HAL_InitTick+0xc>
 80008de:	2c03      	cmp	r4, #3
 80008e0:	d8ee      	bhi.n	80008c0 <HAL_InitTick+0xc>
 80008e2:	3801      	subs	r0, #1
 80008e4:	2200      	movs	r2, #0
 80008e6:	0021      	movs	r1, r4
 80008e8:	f000 f830 	bl	800094c <HAL_NVIC_SetPriority>
 80008ec:	4b03      	ldr	r3, [pc, #12]	@ (80008fc <HAL_InitTick+0x48>)
 80008ee:	2000      	movs	r0, #0
 80008f0:	601c      	str	r4, [r3, #0]
 80008f2:	e7e6      	b.n	80008c2 <HAL_InitTick+0xe>
 80008f4:	20000004 	.word	0x20000004
 80008f8:	20000000 	.word	0x20000000
 80008fc:	20000008 	.word	0x20000008

08000900 <HAL_Init>:
 8000900:	2380      	movs	r3, #128	@ 0x80
 8000902:	4a08      	ldr	r2, [pc, #32]	@ (8000924 <HAL_Init+0x24>)
 8000904:	005b      	lsls	r3, r3, #1
 8000906:	6811      	ldr	r1, [r2, #0]
 8000908:	b510      	push	{r4, lr}
 800090a:	430b      	orrs	r3, r1
 800090c:	2003      	movs	r0, #3
 800090e:	6013      	str	r3, [r2, #0]
 8000910:	f7ff ffd0 	bl	80008b4 <HAL_InitTick>
 8000914:	1e04      	subs	r4, r0, #0
 8000916:	d002      	beq.n	800091e <HAL_Init+0x1e>
 8000918:	2401      	movs	r4, #1
 800091a:	0020      	movs	r0, r4
 800091c:	bd10      	pop	{r4, pc}
 800091e:	f7ff fec9 	bl	80006b4 <HAL_MspInit>
 8000922:	e7fa      	b.n	800091a <HAL_Init+0x1a>
 8000924:	40022000 	.word	0x40022000

08000928 <HAL_IncTick>:
 8000928:	4a03      	ldr	r2, [pc, #12]	@ (8000938 <HAL_IncTick+0x10>)
 800092a:	4b04      	ldr	r3, [pc, #16]	@ (800093c <HAL_IncTick+0x14>)
 800092c:	6811      	ldr	r1, [r2, #0]
 800092e:	781b      	ldrb	r3, [r3, #0]
 8000930:	185b      	adds	r3, r3, r1
 8000932:	6013      	str	r3, [r2, #0]
 8000934:	4770      	bx	lr
 8000936:	46c0      	nop			@ (mov r8, r8)
 8000938:	20000078 	.word	0x20000078
 800093c:	20000004 	.word	0x20000004

08000940 <HAL_GetTick>:
 8000940:	4b01      	ldr	r3, [pc, #4]	@ (8000948 <HAL_GetTick+0x8>)
 8000942:	6818      	ldr	r0, [r3, #0]
 8000944:	4770      	bx	lr
 8000946:	46c0      	nop			@ (mov r8, r8)
 8000948:	20000078 	.word	0x20000078

0800094c <HAL_NVIC_SetPriority>:
 800094c:	22ff      	movs	r2, #255	@ 0xff
 800094e:	2303      	movs	r3, #3
 8000950:	b510      	push	{r4, lr}
 8000952:	0014      	movs	r4, r2
 8000954:	4003      	ands	r3, r0
 8000956:	00db      	lsls	r3, r3, #3
 8000958:	409c      	lsls	r4, r3
 800095a:	0189      	lsls	r1, r1, #6
 800095c:	400a      	ands	r2, r1
 800095e:	43e4      	mvns	r4, r4
 8000960:	409a      	lsls	r2, r3
 8000962:	2800      	cmp	r0, #0
 8000964:	db0b      	blt.n	800097e <HAL_NVIC_SetPriority+0x32>
 8000966:	4b0c      	ldr	r3, [pc, #48]	@ (8000998 <HAL_NVIC_SetPriority+0x4c>)
 8000968:	21c0      	movs	r1, #192	@ 0xc0
 800096a:	469c      	mov	ip, r3
 800096c:	0880      	lsrs	r0, r0, #2
 800096e:	0080      	lsls	r0, r0, #2
 8000970:	4460      	add	r0, ip
 8000972:	0089      	lsls	r1, r1, #2
 8000974:	5843      	ldr	r3, [r0, r1]
 8000976:	4023      	ands	r3, r4
 8000978:	4313      	orrs	r3, r2
 800097a:	5043      	str	r3, [r0, r1]
 800097c:	bd10      	pop	{r4, pc}
 800097e:	230f      	movs	r3, #15
 8000980:	4906      	ldr	r1, [pc, #24]	@ (800099c <HAL_NVIC_SetPriority+0x50>)
 8000982:	4003      	ands	r3, r0
 8000984:	468c      	mov	ip, r1
 8000986:	3b08      	subs	r3, #8
 8000988:	089b      	lsrs	r3, r3, #2
 800098a:	009b      	lsls	r3, r3, #2
 800098c:	4463      	add	r3, ip
 800098e:	69d9      	ldr	r1, [r3, #28]
 8000990:	400c      	ands	r4, r1
 8000992:	4314      	orrs	r4, r2
 8000994:	61dc      	str	r4, [r3, #28]
 8000996:	e7f1      	b.n	800097c <HAL_NVIC_SetPriority+0x30>
 8000998:	e000e100 	.word	0xe000e100
 800099c:	e000ed00 	.word	0xe000ed00

080009a0 <HAL_NVIC_EnableIRQ>:
 80009a0:	2800      	cmp	r0, #0
 80009a2:	db05      	blt.n	80009b0 <HAL_NVIC_EnableIRQ+0x10>
 80009a4:	221f      	movs	r2, #31
 80009a6:	2301      	movs	r3, #1
 80009a8:	4002      	ands	r2, r0
 80009aa:	4093      	lsls	r3, r2
 80009ac:	4a01      	ldr	r2, [pc, #4]	@ (80009b4 <HAL_NVIC_EnableIRQ+0x14>)
 80009ae:	6013      	str	r3, [r2, #0]
 80009b0:	4770      	bx	lr
 80009b2:	46c0      	nop			@ (mov r8, r8)
 80009b4:	e000e100 	.word	0xe000e100

080009b8 <HAL_SYSTICK_Config>:
 80009b8:	2280      	movs	r2, #128	@ 0x80
 80009ba:	1e43      	subs	r3, r0, #1
 80009bc:	0452      	lsls	r2, r2, #17
 80009be:	2001      	movs	r0, #1
 80009c0:	4293      	cmp	r3, r2
 80009c2:	d20e      	bcs.n	80009e2 <HAL_SYSTICK_Config+0x2a>
 80009c4:	21c0      	movs	r1, #192	@ 0xc0
 80009c6:	4a07      	ldr	r2, [pc, #28]	@ (80009e4 <HAL_SYSTICK_Config+0x2c>)
 80009c8:	4807      	ldr	r0, [pc, #28]	@ (80009e8 <HAL_SYSTICK_Config+0x30>)
 80009ca:	6053      	str	r3, [r2, #4]
 80009cc:	6a03      	ldr	r3, [r0, #32]
 80009ce:	0609      	lsls	r1, r1, #24
 80009d0:	021b      	lsls	r3, r3, #8
 80009d2:	0a1b      	lsrs	r3, r3, #8
 80009d4:	430b      	orrs	r3, r1
 80009d6:	6203      	str	r3, [r0, #32]
 80009d8:	2300      	movs	r3, #0
 80009da:	2000      	movs	r0, #0
 80009dc:	6093      	str	r3, [r2, #8]
 80009de:	3307      	adds	r3, #7
 80009e0:	6013      	str	r3, [r2, #0]
 80009e2:	4770      	bx	lr
 80009e4:	e000e010 	.word	0xe000e010
 80009e8:	e000ed00 	.word	0xe000ed00

080009ec <HAL_GPIO_Init>:
 80009ec:	b5f0      	push	{r4, r5, r6, r7, lr}
 80009ee:	46de      	mov	lr, fp
 80009f0:	4657      	mov	r7, sl
 80009f2:	464e      	mov	r6, r9
 80009f4:	4645      	mov	r5, r8
 80009f6:	b5e0      	push	{r5, r6, r7, lr}
 80009f8:	680a      	ldr	r2, [r1, #0]
 80009fa:	468b      	mov	fp, r1
 80009fc:	b085      	sub	sp, #20
 80009fe:	2a00      	cmp	r2, #0
 8000a00:	d06a      	beq.n	8000ad8 <HAL_GPIO_Init+0xec>
 8000a02:	21a0      	movs	r1, #160	@ 0xa0
 8000a04:	2300      	movs	r3, #0
 8000a06:	05c9      	lsls	r1, r1, #23
 8000a08:	4288      	cmp	r0, r1
 8000a0a:	d100      	bne.n	8000a0e <HAL_GPIO_Init+0x22>
 8000a0c:	e0c5      	b.n	8000b9a <HAL_GPIO_Init+0x1ae>
 8000a0e:	2101      	movs	r1, #1
 8000a10:	4099      	lsls	r1, r3
 8000a12:	468c      	mov	ip, r1
 8000a14:	4011      	ands	r1, r2
 8000a16:	468a      	mov	sl, r1
 8000a18:	4661      	mov	r1, ip
 8000a1a:	420a      	tst	r2, r1
 8000a1c:	d058      	beq.n	8000ad0 <HAL_GPIO_Init+0xe4>
 8000a1e:	2503      	movs	r5, #3
 8000a20:	4659      	mov	r1, fp
 8000a22:	005e      	lsls	r6, r3, #1
 8000a24:	40b5      	lsls	r5, r6
 8000a26:	684c      	ldr	r4, [r1, #4]
 8000a28:	2103      	movs	r1, #3
 8000a2a:	43ed      	mvns	r5, r5
 8000a2c:	4021      	ands	r1, r4
 8000a2e:	1e4f      	subs	r7, r1, #1
 8000a30:	9501      	str	r5, [sp, #4]
 8000a32:	2f01      	cmp	r7, #1
 8000a34:	d957      	bls.n	8000ae6 <HAL_GPIO_Init+0xfa>
 8000a36:	2903      	cmp	r1, #3
 8000a38:	d000      	beq.n	8000a3c <HAL_GPIO_Init+0x50>
 8000a3a:	e15f      	b.n	8000cfc <HAL_GPIO_Init+0x310>
 8000a3c:	40b1      	lsls	r1, r6
 8000a3e:	6807      	ldr	r7, [r0, #0]
 8000a40:	9d01      	ldr	r5, [sp, #4]
 8000a42:	403d      	ands	r5, r7
 8000a44:	4329      	orrs	r1, r5
 8000a46:	6001      	str	r1, [r0, #0]
 8000a48:	21c0      	movs	r1, #192	@ 0xc0
 8000a4a:	0289      	lsls	r1, r1, #10
 8000a4c:	420c      	tst	r4, r1
 8000a4e:	d03f      	beq.n	8000ad0 <HAL_GPIO_Init+0xe4>
 8000a50:	2603      	movs	r6, #3
 8000a52:	270f      	movs	r7, #15
 8000a54:	4db9      	ldr	r5, [pc, #740]	@ (8000d3c <HAL_GPIO_Init+0x350>)
 8000a56:	401e      	ands	r6, r3
 8000a58:	46ac      	mov	ip, r5
 8000a5a:	00f6      	lsls	r6, r6, #3
 8000a5c:	40b7      	lsls	r7, r6
 8000a5e:	0899      	lsrs	r1, r3, #2
 8000a60:	0089      	lsls	r1, r1, #2
 8000a62:	4461      	add	r1, ip
 8000a64:	6e0d      	ldr	r5, [r1, #96]	@ 0x60
 8000a66:	43bd      	bics	r5, r7
 8000a68:	4fb5      	ldr	r7, [pc, #724]	@ (8000d40 <HAL_GPIO_Init+0x354>)
 8000a6a:	42b8      	cmp	r0, r7
 8000a6c:	d100      	bne.n	8000a70 <HAL_GPIO_Init+0x84>
 8000a6e:	e090      	b.n	8000b92 <HAL_GPIO_Init+0x1a6>
 8000a70:	4fb4      	ldr	r7, [pc, #720]	@ (8000d44 <HAL_GPIO_Init+0x358>)
 8000a72:	42b8      	cmp	r0, r7
 8000a74:	d100      	bne.n	8000a78 <HAL_GPIO_Init+0x8c>
 8000a76:	e07b      	b.n	8000b70 <HAL_GPIO_Init+0x184>
 8000a78:	4fb3      	ldr	r7, [pc, #716]	@ (8000d48 <HAL_GPIO_Init+0x35c>)
 8000a7a:	42b8      	cmp	r0, r7
 8000a7c:	d100      	bne.n	8000a80 <HAL_GPIO_Init+0x94>
 8000a7e:	e139      	b.n	8000cf4 <HAL_GPIO_Init+0x308>
 8000a80:	2705      	movs	r7, #5
 8000a82:	40b7      	lsls	r7, r6
 8000a84:	433d      	orrs	r5, r7
 8000a86:	2680      	movs	r6, #128	@ 0x80
 8000a88:	660d      	str	r5, [r1, #96]	@ 0x60
 8000a8a:	4655      	mov	r5, sl
 8000a8c:	49ab      	ldr	r1, [pc, #684]	@ (8000d3c <HAL_GPIO_Init+0x350>)
 8000a8e:	0376      	lsls	r6, r6, #13
 8000a90:	43ed      	mvns	r5, r5
 8000a92:	6809      	ldr	r1, [r1, #0]
 8000a94:	4234      	tst	r4, r6
 8000a96:	d000      	beq.n	8000a9a <HAL_GPIO_Init+0xae>
 8000a98:	e078      	b.n	8000b8c <HAL_GPIO_Init+0x1a0>
 8000a9a:	4029      	ands	r1, r5
 8000a9c:	4ea7      	ldr	r6, [pc, #668]	@ (8000d3c <HAL_GPIO_Init+0x350>)
 8000a9e:	6031      	str	r1, [r6, #0]
 8000aa0:	6871      	ldr	r1, [r6, #4]
 8000aa2:	2680      	movs	r6, #128	@ 0x80
 8000aa4:	03b6      	lsls	r6, r6, #14
 8000aa6:	4234      	tst	r4, r6
 8000aa8:	d16d      	bne.n	8000b86 <HAL_GPIO_Init+0x19a>
 8000aaa:	4029      	ands	r1, r5
 8000aac:	4ea3      	ldr	r6, [pc, #652]	@ (8000d3c <HAL_GPIO_Init+0x350>)
 8000aae:	6071      	str	r1, [r6, #4]
 8000ab0:	2184      	movs	r1, #132	@ 0x84
 8000ab2:	5871      	ldr	r1, [r6, r1]
 8000ab4:	03a6      	lsls	r6, r4, #14
 8000ab6:	d463      	bmi.n	8000b80 <HAL_GPIO_Init+0x194>
 8000ab8:	4029      	ands	r1, r5
 8000aba:	2684      	movs	r6, #132	@ 0x84
 8000abc:	4f9f      	ldr	r7, [pc, #636]	@ (8000d3c <HAL_GPIO_Init+0x350>)
 8000abe:	51b9      	str	r1, [r7, r6]
 8000ac0:	2180      	movs	r1, #128	@ 0x80
 8000ac2:	5879      	ldr	r1, [r7, r1]
 8000ac4:	03e4      	lsls	r4, r4, #15
 8000ac6:	d457      	bmi.n	8000b78 <HAL_GPIO_Init+0x18c>
 8000ac8:	4029      	ands	r1, r5
 8000aca:	2480      	movs	r4, #128	@ 0x80
 8000acc:	4d9b      	ldr	r5, [pc, #620]	@ (8000d3c <HAL_GPIO_Init+0x350>)
 8000ace:	5129      	str	r1, [r5, r4]
 8000ad0:	0011      	movs	r1, r2
 8000ad2:	3301      	adds	r3, #1
 8000ad4:	40d9      	lsrs	r1, r3
 8000ad6:	d19a      	bne.n	8000a0e <HAL_GPIO_Init+0x22>
 8000ad8:	b005      	add	sp, #20
 8000ada:	bcf0      	pop	{r4, r5, r6, r7}
 8000adc:	46bb      	mov	fp, r7
 8000ade:	46b2      	mov	sl, r6
 8000ae0:	46a9      	mov	r9, r5
 8000ae2:	46a0      	mov	r8, r4
 8000ae4:	bdf0      	pop	{r4, r5, r6, r7, pc}
 8000ae6:	6887      	ldr	r7, [r0, #8]
 8000ae8:	402f      	ands	r7, r5
 8000aea:	46b9      	mov	r9, r7
 8000aec:	465f      	mov	r7, fp
 8000aee:	68ff      	ldr	r7, [r7, #12]
 8000af0:	40b7      	lsls	r7, r6
 8000af2:	46b8      	mov	r8, r7
 8000af4:	464f      	mov	r7, r9
 8000af6:	4645      	mov	r5, r8
 8000af8:	432f      	orrs	r7, r5
 8000afa:	6087      	str	r7, [r0, #8]
 8000afc:	6845      	ldr	r5, [r0, #4]
 8000afe:	002f      	movs	r7, r5
 8000b00:	4665      	mov	r5, ip
 8000b02:	43af      	bics	r7, r5
 8000b04:	0925      	lsrs	r5, r4, #4
 8000b06:	46b8      	mov	r8, r7
 8000b08:	002f      	movs	r7, r5
 8000b0a:	2501      	movs	r5, #1
 8000b0c:	402f      	ands	r7, r5
 8000b0e:	409f      	lsls	r7, r3
 8000b10:	46bc      	mov	ip, r7
 8000b12:	4647      	mov	r7, r8
 8000b14:	4665      	mov	r5, ip
 8000b16:	432f      	orrs	r7, r5
 8000b18:	6047      	str	r7, [r0, #4]
 8000b1a:	68c5      	ldr	r5, [r0, #12]
 8000b1c:	002f      	movs	r7, r5
 8000b1e:	9d01      	ldr	r5, [sp, #4]
 8000b20:	402f      	ands	r7, r5
 8000b22:	465d      	mov	r5, fp
 8000b24:	68ad      	ldr	r5, [r5, #8]
 8000b26:	46b8      	mov	r8, r7
 8000b28:	002f      	movs	r7, r5
 8000b2a:	40b7      	lsls	r7, r6
 8000b2c:	46bc      	mov	ip, r7
 8000b2e:	4647      	mov	r7, r8
 8000b30:	4665      	mov	r5, ip
 8000b32:	432f      	orrs	r7, r5
 8000b34:	60c7      	str	r7, [r0, #12]
 8000b36:	2902      	cmp	r1, #2
 8000b38:	d000      	beq.n	8000b3c <HAL_GPIO_Init+0x150>
 8000b3a:	e77f      	b.n	8000a3c <HAL_GPIO_Init+0x50>
 8000b3c:	08dd      	lsrs	r5, r3, #3
 8000b3e:	00ad      	lsls	r5, r5, #2
 8000b40:	46ac      	mov	ip, r5
 8000b42:	4484      	add	ip, r0
 8000b44:	4665      	mov	r5, ip
 8000b46:	6a2f      	ldr	r7, [r5, #32]
 8000b48:	2507      	movs	r5, #7
 8000b4a:	401d      	ands	r5, r3
 8000b4c:	00ad      	lsls	r5, r5, #2
 8000b4e:	46a8      	mov	r8, r5
 8000b50:	9702      	str	r7, [sp, #8]
 8000b52:	250f      	movs	r5, #15
 8000b54:	4647      	mov	r7, r8
 8000b56:	40bd      	lsls	r5, r7
 8000b58:	9f02      	ldr	r7, [sp, #8]
 8000b5a:	43af      	bics	r7, r5
 8000b5c:	465d      	mov	r5, fp
 8000b5e:	9702      	str	r7, [sp, #8]
 8000b60:	4647      	mov	r7, r8
 8000b62:	692d      	ldr	r5, [r5, #16]
 8000b64:	40bd      	lsls	r5, r7
 8000b66:	9f02      	ldr	r7, [sp, #8]
 8000b68:	432f      	orrs	r7, r5
 8000b6a:	4665      	mov	r5, ip
 8000b6c:	622f      	str	r7, [r5, #32]
 8000b6e:	e765      	b.n	8000a3c <HAL_GPIO_Init+0x50>
 8000b70:	2702      	movs	r7, #2
 8000b72:	40b7      	lsls	r7, r6
 8000b74:	433d      	orrs	r5, r7
 8000b76:	e786      	b.n	8000a86 <HAL_GPIO_Init+0x9a>
 8000b78:	4654      	mov	r4, sl
 8000b7a:	430c      	orrs	r4, r1
 8000b7c:	0021      	movs	r1, r4
 8000b7e:	e7a4      	b.n	8000aca <HAL_GPIO_Init+0xde>
 8000b80:	4656      	mov	r6, sl
 8000b82:	4331      	orrs	r1, r6
 8000b84:	e799      	b.n	8000aba <HAL_GPIO_Init+0xce>
 8000b86:	4656      	mov	r6, sl
 8000b88:	4331      	orrs	r1, r6
 8000b8a:	e78f      	b.n	8000aac <HAL_GPIO_Init+0xc0>
 8000b8c:	4656      	mov	r6, sl
 8000b8e:	4331      	orrs	r1, r6
 8000b90:	e784      	b.n	8000a9c <HAL_GPIO_Init+0xb0>
 8000b92:	2701      	movs	r7, #1
 8000b94:	40b7      	lsls	r7, r6
 8000b96:	433d      	orrs	r5, r7
 8000b98:	e775      	b.n	8000a86 <HAL_GPIO_Init+0x9a>
 8000b9a:	2101      	movs	r1, #1
 8000b9c:	468a      	mov	sl, r1
 8000b9e:	4659      	mov	r1, fp
 8000ba0:	9102      	str	r1, [sp, #8]
 8000ba2:	e040      	b.n	8000c26 <HAL_GPIO_Init+0x23a>
 8000ba4:	2903      	cmp	r1, #3
 8000ba6:	d000      	beq.n	8000baa <HAL_GPIO_Init+0x1be>
 8000ba8:	e0b5      	b.n	8000d16 <HAL_GPIO_Init+0x32a>
 8000baa:	40b1      	lsls	r1, r6
 8000bac:	6807      	ldr	r7, [r0, #0]
 8000bae:	9d01      	ldr	r5, [sp, #4]
 8000bb0:	403d      	ands	r5, r7
 8000bb2:	4329      	orrs	r1, r5
 8000bb4:	6001      	str	r1, [r0, #0]
 8000bb6:	21c0      	movs	r1, #192	@ 0xc0
 8000bb8:	0289      	lsls	r1, r1, #10
 8000bba:	420c      	tst	r4, r1
 8000bbc:	d02e      	beq.n	8000c1c <HAL_GPIO_Init+0x230>
 8000bbe:	2603      	movs	r6, #3
 8000bc0:	270f      	movs	r7, #15
 8000bc2:	4d5e      	ldr	r5, [pc, #376]	@ (8000d3c <HAL_GPIO_Init+0x350>)
 8000bc4:	401e      	ands	r6, r3
 8000bc6:	46ac      	mov	ip, r5
 8000bc8:	00f6      	lsls	r6, r6, #3
 8000bca:	40b7      	lsls	r7, r6
 8000bcc:	0899      	lsrs	r1, r3, #2
 8000bce:	0089      	lsls	r1, r1, #2
 8000bd0:	4461      	add	r1, ip
 8000bd2:	6e0d      	ldr	r5, [r1, #96]	@ 0x60
 8000bd4:	2680      	movs	r6, #128	@ 0x80
 8000bd6:	43bd      	bics	r5, r7
 8000bd8:	660d      	str	r5, [r1, #96]	@ 0x60
 8000bda:	4661      	mov	r1, ip
 8000bdc:	465d      	mov	r5, fp
 8000bde:	0376      	lsls	r6, r6, #13
 8000be0:	43ed      	mvns	r5, r5
 8000be2:	6809      	ldr	r1, [r1, #0]
 8000be4:	4234      	tst	r4, r6
 8000be6:	d000      	beq.n	8000bea <HAL_GPIO_Init+0x1fe>
 8000be8:	e081      	b.n	8000cee <HAL_GPIO_Init+0x302>
 8000bea:	4029      	ands	r1, r5
 8000bec:	4e53      	ldr	r6, [pc, #332]	@ (8000d3c <HAL_GPIO_Init+0x350>)
 8000bee:	6031      	str	r1, [r6, #0]
 8000bf0:	6871      	ldr	r1, [r6, #4]
 8000bf2:	02a6      	lsls	r6, r4, #10
 8000bf4:	d478      	bmi.n	8000ce8 <HAL_GPIO_Init+0x2fc>
 8000bf6:	4029      	ands	r1, r5
 8000bf8:	4e50      	ldr	r6, [pc, #320]	@ (8000d3c <HAL_GPIO_Init+0x350>)
 8000bfa:	6071      	str	r1, [r6, #4]
 8000bfc:	2184      	movs	r1, #132	@ 0x84
 8000bfe:	5871      	ldr	r1, [r6, r1]
 8000c00:	03a6      	lsls	r6, r4, #14
 8000c02:	d46e      	bmi.n	8000ce2 <HAL_GPIO_Init+0x2f6>
 8000c04:	4029      	ands	r1, r5
 8000c06:	2684      	movs	r6, #132	@ 0x84
 8000c08:	4f4c      	ldr	r7, [pc, #304]	@ (8000d3c <HAL_GPIO_Init+0x350>)
 8000c0a:	51b9      	str	r1, [r7, r6]
 8000c0c:	2180      	movs	r1, #128	@ 0x80
 8000c0e:	5879      	ldr	r1, [r7, r1]
 8000c10:	03e4      	lsls	r4, r4, #15
 8000c12:	d463      	bmi.n	8000cdc <HAL_GPIO_Init+0x2f0>
 8000c14:	4029      	ands	r1, r5
 8000c16:	2480      	movs	r4, #128	@ 0x80
 8000c18:	4d48      	ldr	r5, [pc, #288]	@ (8000d3c <HAL_GPIO_Init+0x350>)
 8000c1a:	5129      	str	r1, [r5, r4]
 8000c1c:	0011      	movs	r1, r2
 8000c1e:	3301      	adds	r3, #1
 8000c20:	40d9      	lsrs	r1, r3
 8000c22:	d100      	bne.n	8000c26 <HAL_GPIO_Init+0x23a>
 8000c24:	e758      	b.n	8000ad8 <HAL_GPIO_Init+0xec>
 8000c26:	4651      	mov	r1, sl
 8000c28:	4099      	lsls	r1, r3
 8000c2a:	468c      	mov	ip, r1
 8000c2c:	4011      	ands	r1, r2
 8000c2e:	468b      	mov	fp, r1
 8000c30:	4661      	mov	r1, ip
 8000c32:	4211      	tst	r1, r2
 8000c34:	d0f2      	beq.n	8000c1c <HAL_GPIO_Init+0x230>
 8000c36:	2503      	movs	r5, #3
 8000c38:	005e      	lsls	r6, r3, #1
 8000c3a:	40b5      	lsls	r5, r6
 8000c3c:	9902      	ldr	r1, [sp, #8]
 8000c3e:	43ed      	mvns	r5, r5
 8000c40:	684c      	ldr	r4, [r1, #4]
 8000c42:	2103      	movs	r1, #3
 8000c44:	4021      	ands	r1, r4
 8000c46:	1e4f      	subs	r7, r1, #1
 8000c48:	9501      	str	r5, [sp, #4]
 8000c4a:	2f01      	cmp	r7, #1
 8000c4c:	d8aa      	bhi.n	8000ba4 <HAL_GPIO_Init+0x1b8>
 8000c4e:	6887      	ldr	r7, [r0, #8]
 8000c50:	402f      	ands	r7, r5
 8000c52:	9d02      	ldr	r5, [sp, #8]
 8000c54:	46b9      	mov	r9, r7
 8000c56:	68ef      	ldr	r7, [r5, #12]
 8000c58:	40b7      	lsls	r7, r6
 8000c5a:	46b8      	mov	r8, r7
 8000c5c:	464f      	mov	r7, r9
 8000c5e:	4645      	mov	r5, r8
 8000c60:	432f      	orrs	r7, r5
 8000c62:	6087      	str	r7, [r0, #8]
 8000c64:	6845      	ldr	r5, [r0, #4]
 8000c66:	002f      	movs	r7, r5
 8000c68:	4665      	mov	r5, ip
 8000c6a:	43af      	bics	r7, r5
 8000c6c:	0925      	lsrs	r5, r4, #4
 8000c6e:	46b8      	mov	r8, r7
 8000c70:	002f      	movs	r7, r5
 8000c72:	4655      	mov	r5, sl
 8000c74:	402f      	ands	r7, r5
 8000c76:	409f      	lsls	r7, r3
 8000c78:	46bc      	mov	ip, r7
 8000c7a:	4647      	mov	r7, r8
 8000c7c:	4665      	mov	r5, ip
 8000c7e:	432f      	orrs	r7, r5
 8000c80:	6047      	str	r7, [r0, #4]
 8000c82:	68c5      	ldr	r5, [r0, #12]
 8000c84:	002f      	movs	r7, r5
 8000c86:	9d01      	ldr	r5, [sp, #4]
 8000c88:	402f      	ands	r7, r5
 8000c8a:	9d02      	ldr	r5, [sp, #8]
 8000c8c:	46b8      	mov	r8, r7
 8000c8e:	68ad      	ldr	r5, [r5, #8]
 8000c90:	002f      	movs	r7, r5
 8000c92:	40b7      	lsls	r7, r6
 8000c94:	46bc      	mov	ip, r7
 8000c96:	4647      	mov	r7, r8
 8000c98:	4665      	mov	r5, ip
 8000c9a:	432f      	orrs	r7, r5
 8000c9c:	60c7      	str	r7, [r0, #12]
 8000c9e:	2902      	cmp	r1, #2
 8000ca0:	d183      	bne.n	8000baa <HAL_GPIO_Init+0x1be>
 8000ca2:	08dd      	lsrs	r5, r3, #3
 8000ca4:	00ad      	lsls	r5, r5, #2
 8000ca6:	46ac      	mov	ip, r5
 8000ca8:	25a0      	movs	r5, #160	@ 0xa0
 8000caa:	05ed      	lsls	r5, r5, #23
 8000cac:	46a8      	mov	r8, r5
 8000cae:	44c4      	add	ip, r8
 8000cb0:	4665      	mov	r5, ip
 8000cb2:	6a2f      	ldr	r7, [r5, #32]
 8000cb4:	2507      	movs	r5, #7
 8000cb6:	401d      	ands	r5, r3
 8000cb8:	00ad      	lsls	r5, r5, #2
 8000cba:	46a9      	mov	r9, r5
 8000cbc:	9703      	str	r7, [sp, #12]
 8000cbe:	250f      	movs	r5, #15
 8000cc0:	464f      	mov	r7, r9
 8000cc2:	40bd      	lsls	r5, r7
 8000cc4:	9f03      	ldr	r7, [sp, #12]
 8000cc6:	43af      	bics	r7, r5
 8000cc8:	9703      	str	r7, [sp, #12]
 8000cca:	464f      	mov	r7, r9
 8000ccc:	9d02      	ldr	r5, [sp, #8]
 8000cce:	692d      	ldr	r5, [r5, #16]
 8000cd0:	40bd      	lsls	r5, r7
 8000cd2:	9f03      	ldr	r7, [sp, #12]
 8000cd4:	432f      	orrs	r7, r5
 8000cd6:	4665      	mov	r5, ip
 8000cd8:	622f      	str	r7, [r5, #32]
 8000cda:	e766      	b.n	8000baa <HAL_GPIO_Init+0x1be>
 8000cdc:	465c      	mov	r4, fp
 8000cde:	4321      	orrs	r1, r4
 8000ce0:	e799      	b.n	8000c16 <HAL_GPIO_Init+0x22a>
 8000ce2:	465e      	mov	r6, fp
 8000ce4:	4331      	orrs	r1, r6
 8000ce6:	e78e      	b.n	8000c06 <HAL_GPIO_Init+0x21a>
 8000ce8:	465e      	mov	r6, fp
 8000cea:	4331      	orrs	r1, r6
 8000cec:	e784      	b.n	8000bf8 <HAL_GPIO_Init+0x20c>
 8000cee:	465e      	mov	r6, fp
 8000cf0:	4331      	orrs	r1, r6
 8000cf2:	e77b      	b.n	8000bec <HAL_GPIO_Init+0x200>
 8000cf4:	2703      	movs	r7, #3
 8000cf6:	40b7      	lsls	r7, r6
 8000cf8:	433d      	orrs	r5, r7
 8000cfa:	e6c4      	b.n	8000a86 <HAL_GPIO_Init+0x9a>
 8000cfc:	002f      	movs	r7, r5
 8000cfe:	68c5      	ldr	r5, [r0, #12]
 8000d00:	403d      	ands	r5, r7
 8000d02:	46a8      	mov	r8, r5
 8000d04:	465d      	mov	r5, fp
 8000d06:	68ad      	ldr	r5, [r5, #8]
 8000d08:	40b5      	lsls	r5, r6
 8000d0a:	46ac      	mov	ip, r5
 8000d0c:	4645      	mov	r5, r8
 8000d0e:	4667      	mov	r7, ip
 8000d10:	433d      	orrs	r5, r7
 8000d12:	60c5      	str	r5, [r0, #12]
 8000d14:	e692      	b.n	8000a3c <HAL_GPIO_Init+0x50>
 8000d16:	002f      	movs	r7, r5
 8000d18:	25a0      	movs	r5, #160	@ 0xa0
 8000d1a:	05ed      	lsls	r5, r5, #23
 8000d1c:	46a8      	mov	r8, r5
 8000d1e:	68ed      	ldr	r5, [r5, #12]
 8000d20:	403d      	ands	r5, r7
 8000d22:	46a9      	mov	r9, r5
 8000d24:	9d02      	ldr	r5, [sp, #8]
 8000d26:	68ad      	ldr	r5, [r5, #8]
 8000d28:	40b5      	lsls	r5, r6
 8000d2a:	46ac      	mov	ip, r5
 8000d2c:	464d      	mov	r5, r9
 8000d2e:	4667      	mov	r7, ip
 8000d30:	433d      	orrs	r5, r7
 8000d32:	46ac      	mov	ip, r5
 8000d34:	4645      	mov	r5, r8
 8000d36:	4667      	mov	r7, ip
 8000d38:	60ef      	str	r7, [r5, #12]
 8000d3a:	e736      	b.n	8000baa <HAL_GPIO_Init+0x1be>
 8000d3c:	40021800 	.word	0x40021800
 8000d40:	50000400 	.word	0x50000400
 8000d44:	50000800 	.word	0x50000800
 8000d48:	50000c00 	.word	0x50000c00

08000d4c <HAL_GPIO_WritePin>:
 8000d4c:	2a00      	cmp	r2, #0
 8000d4e:	d001      	beq.n	8000d54 <HAL_GPIO_WritePin+0x8>
 8000d50:	6181      	str	r1, [r0, #24]
 8000d52:	4770      	bx	lr
 8000d54:	6281      	str	r1, [r0, #40]	@ 0x28
 8000d56:	e7fc      	b.n	8000d52 <HAL_GPIO_WritePin+0x6>

08000d58 <HAL_GPIO_EXTI_Rising_Callback>:
 8000d58:	4770      	bx	lr
 8000d5a:	46c0      	nop			@ (mov r8, r8)

08000d5c <HAL_GPIO_EXTI_Falling_Callback>:
 8000d5c:	4770      	bx	lr
 8000d5e:	46c0      	nop			@ (mov r8, r8)

08000d60 <HAL_GPIO_EXTI_IRQHandler>:
 8000d60:	4b0b      	ldr	r3, [pc, #44]	@ (8000d90 <HAL_GPIO_EXTI_IRQHandler+0x30>)
 8000d62:	b510      	push	{r4, lr}
 8000d64:	68da      	ldr	r2, [r3, #12]
 8000d66:	0004      	movs	r4, r0
 8000d68:	4210      	tst	r0, r2
 8000d6a:	d104      	bne.n	8000d76 <HAL_GPIO_EXTI_IRQHandler+0x16>
 8000d6c:	4b08      	ldr	r3, [pc, #32]	@ (8000d90 <HAL_GPIO_EXTI_IRQHandler+0x30>)
 8000d6e:	691a      	ldr	r2, [r3, #16]
 8000d70:	4222      	tst	r2, r4
 8000d72:	d107      	bne.n	8000d84 <HAL_GPIO_EXTI_IRQHandler+0x24>
 8000d74:	bd10      	pop	{r4, pc}
 8000d76:	60d8      	str	r0, [r3, #12]
 8000d78:	f7ff ffee 	bl	8000d58 <HAL_GPIO_EXTI_Rising_Callback>
 8000d7c:	4b04      	ldr	r3, [pc, #16]	@ (8000d90 <HAL_GPIO_EXTI_IRQHandler+0x30>)
 8000d7e:	691a      	ldr	r2, [r3, #16]
 8000d80:	4222      	tst	r2, r4
 8000d82:	d0f7      	beq.n	8000d74 <HAL_GPIO_EXTI_IRQHandler+0x14>
 8000d84:	0020      	movs	r0, r4
 8000d86:	611c      	str	r4, [r3, #16]
 8000d88:	f7ff ffe8 	bl	8000d5c <HAL_GPIO_EXTI_Falling_Callback>
 8000d8c:	e7f2      	b.n	8000d74 <HAL_GPIO_EXTI_IRQHandler+0x14>
 8000d8e:	46c0      	nop			@ (mov r8, r8)
 8000d90:	40021800 	.word	0x40021800

08000d94 <HAL_PWR_EnterSLEEPMode>:
 8000d94:	4b12      	ldr	r3, [pc, #72]	@ (8000de0 <HAL_PWR_EnterSLEEPMode+0x4c>)
 8000d96:	b510      	push	{r4, lr}
 8000d98:	695b      	ldr	r3, [r3, #20]
 8000d9a:	000c      	movs	r4, r1
 8000d9c:	2800      	cmp	r0, #0
 8000d9e:	d00c      	beq.n	8000dba <HAL_PWR_EnterSLEEPMode+0x26>
 8000da0:	059b      	lsls	r3, r3, #22
 8000da2:	d519      	bpl.n	8000dd8 <HAL_PWR_EnterSLEEPMode+0x44>
 8000da4:	2104      	movs	r1, #4
 8000da6:	4a0f      	ldr	r2, [pc, #60]	@ (8000de4 <HAL_PWR_EnterSLEEPMode+0x50>)
 8000da8:	6913      	ldr	r3, [r2, #16]
 8000daa:	438b      	bics	r3, r1
 8000dac:	6113      	str	r3, [r2, #16]
 8000dae:	2c01      	cmp	r4, #1
 8000db0:	d010      	beq.n	8000dd4 <HAL_PWR_EnterSLEEPMode+0x40>
 8000db2:	bf40      	sev
 8000db4:	bf20      	wfe
 8000db6:	bf20      	wfe
 8000db8:	bd10      	pop	{r4, pc}
 8000dba:	059b      	lsls	r3, r3, #22
 8000dbc:	d5f2      	bpl.n	8000da4 <HAL_PWR_EnterSLEEPMode+0x10>
 8000dbe:	f000 f84d 	bl	8000e5c <HAL_PWREx_DisableLowPowerRunMode>
 8000dc2:	2800      	cmp	r0, #0
 8000dc4:	d1f8      	bne.n	8000db8 <HAL_PWR_EnterSLEEPMode+0x24>
 8000dc6:	2104      	movs	r1, #4
 8000dc8:	4a06      	ldr	r2, [pc, #24]	@ (8000de4 <HAL_PWR_EnterSLEEPMode+0x50>)
 8000dca:	6913      	ldr	r3, [r2, #16]
 8000dcc:	438b      	bics	r3, r1
 8000dce:	6113      	str	r3, [r2, #16]
 8000dd0:	2c01      	cmp	r4, #1
 8000dd2:	d1ee      	bne.n	8000db2 <HAL_PWR_EnterSLEEPMode+0x1e>
 8000dd4:	bf30      	wfi
 8000dd6:	e7ef      	b.n	8000db8 <HAL_PWR_EnterSLEEPMode+0x24>
 8000dd8:	f000 f836 	bl	8000e48 <HAL_PWREx_EnableLowPowerRunMode>
 8000ddc:	e7e2      	b.n	8000da4 <HAL_PWR_EnterSLEEPMode+0x10>
 8000dde:	46c0      	nop			@ (mov r8, r8)
 8000de0:	40007000 	.word	0x40007000
 8000de4:	e000ed00 	.word	0xe000ed00

08000de8 <HAL_PWREx_ControlVoltageScaling>:
 8000de8:	b570      	push	{r4, r5, r6, lr}
 8000dea:	4c13      	ldr	r4, [pc, #76]	@ (8000e38 <HAL_PWREx_ControlVoltageScaling+0x50>)
 8000dec:	4a13      	ldr	r2, [pc, #76]	@ (8000e3c <HAL_PWREx_ControlVoltageScaling+0x54>)
 8000dee:	6823      	ldr	r3, [r4, #0]
 8000df0:	2500      	movs	r5, #0
 8000df2:	4013      	ands	r3, r2
 8000df4:	4303      	orrs	r3, r0
 8000df6:	6023      	str	r3, [r4, #0]
 8000df8:	2380      	movs	r3, #128	@ 0x80
 8000dfa:	009b      	lsls	r3, r3, #2
 8000dfc:	4298      	cmp	r0, r3
 8000dfe:	d001      	beq.n	8000e04 <HAL_PWREx_ControlVoltageScaling+0x1c>
 8000e00:	0028      	movs	r0, r5
 8000e02:	bd70      	pop	{r4, r5, r6, pc}
 8000e04:	4b0e      	ldr	r3, [pc, #56]	@ (8000e40 <HAL_PWREx_ControlVoltageScaling+0x58>)
 8000e06:	490f      	ldr	r1, [pc, #60]	@ (8000e44 <HAL_PWREx_ControlVoltageScaling+0x5c>)
 8000e08:	681b      	ldr	r3, [r3, #0]
 8000e0a:	0058      	lsls	r0, r3, #1
 8000e0c:	18c0      	adds	r0, r0, r3
 8000e0e:	0040      	lsls	r0, r0, #1
 8000e10:	f7ff f976 	bl	8000100 <__udivsi3>
 8000e14:	2280      	movs	r2, #128	@ 0x80
 8000e16:	6963      	ldr	r3, [r4, #20]
 8000e18:	00d2      	lsls	r2, r2, #3
 8000e1a:	3001      	adds	r0, #1
 8000e1c:	4213      	tst	r3, r2
 8000e1e:	d102      	bne.n	8000e26 <HAL_PWREx_ControlVoltageScaling+0x3e>
 8000e20:	e7ee      	b.n	8000e00 <HAL_PWREx_ControlVoltageScaling+0x18>
 8000e22:	2800      	cmp	r0, #0
 8000e24:	d005      	beq.n	8000e32 <HAL_PWREx_ControlVoltageScaling+0x4a>
 8000e26:	6963      	ldr	r3, [r4, #20]
 8000e28:	3801      	subs	r0, #1
 8000e2a:	4213      	tst	r3, r2
 8000e2c:	d1f9      	bne.n	8000e22 <HAL_PWREx_ControlVoltageScaling+0x3a>
 8000e2e:	2500      	movs	r5, #0
 8000e30:	e7e6      	b.n	8000e00 <HAL_PWREx_ControlVoltageScaling+0x18>
 8000e32:	2503      	movs	r5, #3
 8000e34:	e7e4      	b.n	8000e00 <HAL_PWREx_ControlVoltageScaling+0x18>
 8000e36:	46c0      	nop			@ (mov r8, r8)
 8000e38:	40007000 	.word	0x40007000
 8000e3c:	fffff9ff 	.word	0xfffff9ff
 8000e40:	20000000 	.word	0x20000000
 8000e44:	000f4240 	.word	0x000f4240

08000e48 <HAL_PWREx_EnableLowPowerRunMode>:
 8000e48:	2380      	movs	r3, #128	@ 0x80
 8000e4a:	4a03      	ldr	r2, [pc, #12]	@ (8000e58 <HAL_PWREx_EnableLowPowerRunMode+0x10>)
 8000e4c:	01db      	lsls	r3, r3, #7
 8000e4e:	6811      	ldr	r1, [r2, #0]
 8000e50:	430b      	orrs	r3, r1
 8000e52:	6013      	str	r3, [r2, #0]
 8000e54:	4770      	bx	lr
 8000e56:	46c0      	nop			@ (mov r8, r8)
 8000e58:	40007000 	.word	0x40007000

08000e5c <HAL_PWREx_DisableLowPowerRunMode>:
 8000e5c:	4b0f      	ldr	r3, [pc, #60]	@ (8000e9c <HAL_PWREx_DisableLowPowerRunMode+0x40>)
 8000e5e:	b510      	push	{r4, lr}
 8000e60:	681b      	ldr	r3, [r3, #0]
 8000e62:	490f      	ldr	r1, [pc, #60]	@ (8000ea0 <HAL_PWREx_DisableLowPowerRunMode+0x44>)
 8000e64:	0058      	lsls	r0, r3, #1
 8000e66:	18c0      	adds	r0, r0, r3
 8000e68:	0040      	lsls	r0, r0, #1
 8000e6a:	f7ff f949 	bl	8000100 <__udivsi3>
 8000e6e:	4a0d      	ldr	r2, [pc, #52]	@ (8000ea4 <HAL_PWREx_DisableLowPowerRunMode+0x48>)
 8000e70:	490d      	ldr	r1, [pc, #52]	@ (8000ea8 <HAL_PWREx_DisableLowPowerRunMode+0x4c>)
 8000e72:	6813      	ldr	r3, [r2, #0]
 8000e74:	3001      	adds	r0, #1
 8000e76:	400b      	ands	r3, r1
 8000e78:	2180      	movs	r1, #128	@ 0x80
 8000e7a:	6013      	str	r3, [r2, #0]
 8000e7c:	6953      	ldr	r3, [r2, #20]
 8000e7e:	0089      	lsls	r1, r1, #2
 8000e80:	420b      	tst	r3, r1
 8000e82:	d102      	bne.n	8000e8a <HAL_PWREx_DisableLowPowerRunMode+0x2e>
 8000e84:	e005      	b.n	8000e92 <HAL_PWREx_DisableLowPowerRunMode+0x36>
 8000e86:	2800      	cmp	r0, #0
 8000e88:	d005      	beq.n	8000e96 <HAL_PWREx_DisableLowPowerRunMode+0x3a>
 8000e8a:	6953      	ldr	r3, [r2, #20]
 8000e8c:	3801      	subs	r0, #1
 8000e8e:	420b      	tst	r3, r1
 8000e90:	d1f9      	bne.n	8000e86 <HAL_PWREx_DisableLowPowerRunMode+0x2a>
 8000e92:	2000      	movs	r0, #0
 8000e94:	bd10      	pop	{r4, pc}
 8000e96:	2003      	movs	r0, #3
 8000e98:	e7fc      	b.n	8000e94 <HAL_PWREx_DisableLowPowerRunMode+0x38>
 8000e9a:	46c0      	nop			@ (mov r8, r8)
 8000e9c:	20000000 	.word	0x20000000
 8000ea0:	000f4240 	.word	0x000f4240
 8000ea4:	40007000 	.word	0x40007000
 8000ea8:	ffffbfff 	.word	0xffffbfff

08000eac <HAL_RCC_OscConfig>:
 8000eac:	b5f0      	push	{r4, r5, r6, r7, lr}
 8000eae:	46ce      	mov	lr, r9
 8000eb0:	4647      	mov	r7, r8
 8000eb2:	b580      	push	{r7, lr}
 8000eb4:	0004      	movs	r4, r0
 8000eb6:	b083      	sub	sp, #12
 8000eb8:	2800      	cmp	r0, #0
 8000eba:	d027      	beq.n	8000f0c <HAL_RCC_OscConfig+0x60>
 8000ebc:	6803      	ldr	r3, [r0, #0]
 8000ebe:	07da      	lsls	r2, r3, #31
 8000ec0:	d511      	bpl.n	8000ee6 <HAL_RCC_OscConfig+0x3a>
 8000ec2:	2238      	movs	r2, #56	@ 0x38
 8000ec4:	49c0      	ldr	r1, [pc, #768]	@ (80011c8 <HAL_RCC_OscConfig+0x31c>)
 8000ec6:	6888      	ldr	r0, [r1, #8]
 8000ec8:	68c9      	ldr	r1, [r1, #12]
 8000eca:	4002      	ands	r2, r0
 8000ecc:	2a10      	cmp	r2, #16
 8000ece:	d100      	bne.n	8000ed2 <HAL_RCC_OscConfig+0x26>
 8000ed0:	e0cc      	b.n	800106c <HAL_RCC_OscConfig+0x1c0>
 8000ed2:	2a08      	cmp	r2, #8
 8000ed4:	d000      	beq.n	8000ed8 <HAL_RCC_OscConfig+0x2c>
 8000ed6:	e0cd      	b.n	8001074 <HAL_RCC_OscConfig+0x1c8>
 8000ed8:	4abb      	ldr	r2, [pc, #748]	@ (80011c8 <HAL_RCC_OscConfig+0x31c>)
 8000eda:	6812      	ldr	r2, [r2, #0]
 8000edc:	0392      	lsls	r2, r2, #14
 8000ede:	d502      	bpl.n	8000ee6 <HAL_RCC_OscConfig+0x3a>
 8000ee0:	6862      	ldr	r2, [r4, #4]
 8000ee2:	2a00      	cmp	r2, #0
 8000ee4:	d012      	beq.n	8000f0c <HAL_RCC_OscConfig+0x60>
 8000ee6:	079a      	lsls	r2, r3, #30
 8000ee8:	d532      	bpl.n	8000f50 <HAL_RCC_OscConfig+0xa4>
 8000eea:	2338      	movs	r3, #56	@ 0x38
 8000eec:	4ab6      	ldr	r2, [pc, #728]	@ (80011c8 <HAL_RCC_OscConfig+0x31c>)
 8000eee:	6891      	ldr	r1, [r2, #8]
 8000ef0:	400b      	ands	r3, r1
 8000ef2:	68d1      	ldr	r1, [r2, #12]
 8000ef4:	2b10      	cmp	r3, #16
 8000ef6:	d100      	bne.n	8000efa <HAL_RCC_OscConfig+0x4e>
 8000ef8:	e10b      	b.n	8001112 <HAL_RCC_OscConfig+0x266>
 8000efa:	2b00      	cmp	r3, #0
 8000efc:	d000      	beq.n	8000f00 <HAL_RCC_OscConfig+0x54>
 8000efe:	e10d      	b.n	800111c <HAL_RCC_OscConfig+0x270>
 8000f00:	6813      	ldr	r3, [r2, #0]
 8000f02:	055b      	lsls	r3, r3, #21
 8000f04:	d508      	bpl.n	8000f18 <HAL_RCC_OscConfig+0x6c>
 8000f06:	68e3      	ldr	r3, [r4, #12]
 8000f08:	2b00      	cmp	r3, #0
 8000f0a:	d105      	bne.n	8000f18 <HAL_RCC_OscConfig+0x6c>
 8000f0c:	2001      	movs	r0, #1
 8000f0e:	b003      	add	sp, #12
 8000f10:	bcc0      	pop	{r6, r7}
 8000f12:	46b9      	mov	r9, r7
 8000f14:	46b0      	mov	r8, r6
 8000f16:	bdf0      	pop	{r4, r5, r6, r7, pc}
 8000f18:	6851      	ldr	r1, [r2, #4]
 8000f1a:	6963      	ldr	r3, [r4, #20]
 8000f1c:	48ab      	ldr	r0, [pc, #684]	@ (80011cc <HAL_RCC_OscConfig+0x320>)
 8000f1e:	021b      	lsls	r3, r3, #8
 8000f20:	4001      	ands	r1, r0
 8000f22:	430b      	orrs	r3, r1
 8000f24:	6053      	str	r3, [r2, #4]
 8000f26:	4aa8      	ldr	r2, [pc, #672]	@ (80011c8 <HAL_RCC_OscConfig+0x31c>)
 8000f28:	49a9      	ldr	r1, [pc, #676]	@ (80011d0 <HAL_RCC_OscConfig+0x324>)
 8000f2a:	6813      	ldr	r3, [r2, #0]
 8000f2c:	400b      	ands	r3, r1
 8000f2e:	6921      	ldr	r1, [r4, #16]
 8000f30:	430b      	orrs	r3, r1
 8000f32:	6013      	str	r3, [r2, #0]
 8000f34:	6813      	ldr	r3, [r2, #0]
 8000f36:	4aa7      	ldr	r2, [pc, #668]	@ (80011d4 <HAL_RCC_OscConfig+0x328>)
 8000f38:	049b      	lsls	r3, r3, #18
 8000f3a:	0f5b      	lsrs	r3, r3, #29
 8000f3c:	40da      	lsrs	r2, r3
 8000f3e:	49a6      	ldr	r1, [pc, #664]	@ (80011d8 <HAL_RCC_OscConfig+0x32c>)
 8000f40:	600a      	str	r2, [r1, #0]
 8000f42:	4ba6      	ldr	r3, [pc, #664]	@ (80011dc <HAL_RCC_OscConfig+0x330>)
 8000f44:	6818      	ldr	r0, [r3, #0]
 8000f46:	f7ff fcb5 	bl	80008b4 <HAL_InitTick>
 8000f4a:	2800      	cmp	r0, #0
 8000f4c:	d1de      	bne.n	8000f0c <HAL_RCC_OscConfig+0x60>
 8000f4e:	6823      	ldr	r3, [r4, #0]
 8000f50:	071a      	lsls	r2, r3, #28
 8000f52:	d46d      	bmi.n	8001030 <HAL_RCC_OscConfig+0x184>
 8000f54:	075b      	lsls	r3, r3, #29
 8000f56:	d545      	bpl.n	8000fe4 <HAL_RCC_OscConfig+0x138>
 8000f58:	2338      	movs	r3, #56	@ 0x38
 8000f5a:	4a9b      	ldr	r2, [pc, #620]	@ (80011c8 <HAL_RCC_OscConfig+0x31c>)
 8000f5c:	6891      	ldr	r1, [r2, #8]
 8000f5e:	400b      	ands	r3, r1
 8000f60:	2b20      	cmp	r3, #32
 8000f62:	d100      	bne.n	8000f66 <HAL_RCC_OscConfig+0xba>
 8000f64:	e0cc      	b.n	8001100 <HAL_RCC_OscConfig+0x254>
 8000f66:	2380      	movs	r3, #128	@ 0x80
 8000f68:	2000      	movs	r0, #0
 8000f6a:	6bd1      	ldr	r1, [r2, #60]	@ 0x3c
 8000f6c:	055b      	lsls	r3, r3, #21
 8000f6e:	4681      	mov	r9, r0
 8000f70:	4219      	tst	r1, r3
 8000f72:	d108      	bne.n	8000f86 <HAL_RCC_OscConfig+0xda>
 8000f74:	6bd1      	ldr	r1, [r2, #60]	@ 0x3c
 8000f76:	4319      	orrs	r1, r3
 8000f78:	63d1      	str	r1, [r2, #60]	@ 0x3c
 8000f7a:	6bd2      	ldr	r2, [r2, #60]	@ 0x3c
 8000f7c:	4013      	ands	r3, r2
 8000f7e:	9301      	str	r3, [sp, #4]
 8000f80:	9b01      	ldr	r3, [sp, #4]
 8000f82:	2301      	movs	r3, #1
 8000f84:	4699      	mov	r9, r3
 8000f86:	2780      	movs	r7, #128	@ 0x80
 8000f88:	4e95      	ldr	r6, [pc, #596]	@ (80011e0 <HAL_RCC_OscConfig+0x334>)
 8000f8a:	007f      	lsls	r7, r7, #1
 8000f8c:	6833      	ldr	r3, [r6, #0]
 8000f8e:	423b      	tst	r3, r7
 8000f90:	d100      	bne.n	8000f94 <HAL_RCC_OscConfig+0xe8>
 8000f92:	e0ff      	b.n	8001194 <HAL_RCC_OscConfig+0x2e8>
 8000f94:	68a3      	ldr	r3, [r4, #8]
 8000f96:	2b01      	cmp	r3, #1
 8000f98:	d100      	bne.n	8000f9c <HAL_RCC_OscConfig+0xf0>
 8000f9a:	e0e5      	b.n	8001168 <HAL_RCC_OscConfig+0x2bc>
 8000f9c:	2b05      	cmp	r3, #5
 8000f9e:	d100      	bne.n	8000fa2 <HAL_RCC_OscConfig+0xf6>
 8000fa0:	e1c8      	b.n	8001334 <HAL_RCC_OscConfig+0x488>
 8000fa2:	2101      	movs	r1, #1
 8000fa4:	4e88      	ldr	r6, [pc, #544]	@ (80011c8 <HAL_RCC_OscConfig+0x31c>)
 8000fa6:	6df2      	ldr	r2, [r6, #92]	@ 0x5c
 8000fa8:	438a      	bics	r2, r1
 8000faa:	65f2      	str	r2, [r6, #92]	@ 0x5c
 8000fac:	6df2      	ldr	r2, [r6, #92]	@ 0x5c
 8000fae:	3103      	adds	r1, #3
 8000fb0:	438a      	bics	r2, r1
 8000fb2:	65f2      	str	r2, [r6, #92]	@ 0x5c
 8000fb4:	2b00      	cmp	r3, #0
 8000fb6:	d000      	beq.n	8000fba <HAL_RCC_OscConfig+0x10e>
 8000fb8:	e0da      	b.n	8001170 <HAL_RCC_OscConfig+0x2c4>
 8000fba:	f7ff fcc1 	bl	8000940 <HAL_GetTick>
 8000fbe:	2302      	movs	r3, #2
 8000fc0:	0007      	movs	r7, r0
 8000fc2:	4698      	mov	r8, r3
 8000fc4:	4d87      	ldr	r5, [pc, #540]	@ (80011e4 <HAL_RCC_OscConfig+0x338>)
 8000fc6:	e005      	b.n	8000fd4 <HAL_RCC_OscConfig+0x128>
 8000fc8:	f7ff fcba 	bl	8000940 <HAL_GetTick>
 8000fcc:	1bc0      	subs	r0, r0, r7
 8000fce:	42a8      	cmp	r0, r5
 8000fd0:	d900      	bls.n	8000fd4 <HAL_RCC_OscConfig+0x128>
 8000fd2:	e0ee      	b.n	80011b2 <HAL_RCC_OscConfig+0x306>
 8000fd4:	4642      	mov	r2, r8
 8000fd6:	6df3      	ldr	r3, [r6, #92]	@ 0x5c
 8000fd8:	421a      	tst	r2, r3
 8000fda:	d1f5      	bne.n	8000fc8 <HAL_RCC_OscConfig+0x11c>
 8000fdc:	464b      	mov	r3, r9
 8000fde:	2b01      	cmp	r3, #1
 8000fe0:	d100      	bne.n	8000fe4 <HAL_RCC_OscConfig+0x138>
 8000fe2:	e163      	b.n	80012ac <HAL_RCC_OscConfig+0x400>
 8000fe4:	69e3      	ldr	r3, [r4, #28]
 8000fe6:	2b00      	cmp	r3, #0
 8000fe8:	d020      	beq.n	800102c <HAL_RCC_OscConfig+0x180>
 8000fea:	2238      	movs	r2, #56	@ 0x38
 8000fec:	4d76      	ldr	r5, [pc, #472]	@ (80011c8 <HAL_RCC_OscConfig+0x31c>)
 8000fee:	68a9      	ldr	r1, [r5, #8]
 8000ff0:	400a      	ands	r2, r1
 8000ff2:	2a10      	cmp	r2, #16
 8000ff4:	d100      	bne.n	8000ff8 <HAL_RCC_OscConfig+0x14c>
 8000ff6:	e11d      	b.n	8001234 <HAL_RCC_OscConfig+0x388>
 8000ff8:	2b02      	cmp	r3, #2
 8000ffa:	d100      	bne.n	8000ffe <HAL_RCC_OscConfig+0x152>
 8000ffc:	e15c      	b.n	80012b8 <HAL_RCC_OscConfig+0x40c>
 8000ffe:	682b      	ldr	r3, [r5, #0]
 8001000:	4a79      	ldr	r2, [pc, #484]	@ (80011e8 <HAL_RCC_OscConfig+0x33c>)
 8001002:	2680      	movs	r6, #128	@ 0x80
 8001004:	4013      	ands	r3, r2
 8001006:	602b      	str	r3, [r5, #0]
 8001008:	f7ff fc9a 	bl	8000940 <HAL_GetTick>
 800100c:	04b6      	lsls	r6, r6, #18
 800100e:	0004      	movs	r4, r0
 8001010:	e005      	b.n	800101e <HAL_RCC_OscConfig+0x172>
 8001012:	f7ff fc95 	bl	8000940 <HAL_GetTick>
 8001016:	1b00      	subs	r0, r0, r4
 8001018:	2802      	cmp	r0, #2
 800101a:	d900      	bls.n	800101e <HAL_RCC_OscConfig+0x172>
 800101c:	e0c9      	b.n	80011b2 <HAL_RCC_OscConfig+0x306>
 800101e:	682b      	ldr	r3, [r5, #0]
 8001020:	4233      	tst	r3, r6
 8001022:	d1f6      	bne.n	8001012 <HAL_RCC_OscConfig+0x166>
 8001024:	68eb      	ldr	r3, [r5, #12]
 8001026:	4a71      	ldr	r2, [pc, #452]	@ (80011ec <HAL_RCC_OscConfig+0x340>)
 8001028:	4013      	ands	r3, r2
 800102a:	60eb      	str	r3, [r5, #12]
 800102c:	2000      	movs	r0, #0
 800102e:	e76e      	b.n	8000f0e <HAL_RCC_OscConfig+0x62>
 8001030:	2238      	movs	r2, #56	@ 0x38
 8001032:	4d65      	ldr	r5, [pc, #404]	@ (80011c8 <HAL_RCC_OscConfig+0x31c>)
 8001034:	68a9      	ldr	r1, [r5, #8]
 8001036:	400a      	ands	r2, r1
 8001038:	2a18      	cmp	r2, #24
 800103a:	d043      	beq.n	80010c4 <HAL_RCC_OscConfig+0x218>
 800103c:	69a3      	ldr	r3, [r4, #24]
 800103e:	2b00      	cmp	r3, #0
 8001040:	d100      	bne.n	8001044 <HAL_RCC_OscConfig+0x198>
 8001042:	e0b8      	b.n	80011b6 <HAL_RCC_OscConfig+0x30a>
 8001044:	2201      	movs	r2, #1
 8001046:	6e2b      	ldr	r3, [r5, #96]	@ 0x60
 8001048:	2702      	movs	r7, #2
 800104a:	4313      	orrs	r3, r2
 800104c:	662b      	str	r3, [r5, #96]	@ 0x60
 800104e:	f7ff fc77 	bl	8000940 <HAL_GetTick>
 8001052:	0006      	movs	r6, r0
 8001054:	e005      	b.n	8001062 <HAL_RCC_OscConfig+0x1b6>
 8001056:	f7ff fc73 	bl	8000940 <HAL_GetTick>
 800105a:	1b80      	subs	r0, r0, r6
 800105c:	2802      	cmp	r0, #2
 800105e:	d900      	bls.n	8001062 <HAL_RCC_OscConfig+0x1b6>
 8001060:	e0a7      	b.n	80011b2 <HAL_RCC_OscConfig+0x306>
 8001062:	6e2b      	ldr	r3, [r5, #96]	@ 0x60
 8001064:	421f      	tst	r7, r3
 8001066:	d0f6      	beq.n	8001056 <HAL_RCC_OscConfig+0x1aa>
 8001068:	6823      	ldr	r3, [r4, #0]
 800106a:	e773      	b.n	8000f54 <HAL_RCC_OscConfig+0xa8>
 800106c:	43c9      	mvns	r1, r1
 800106e:	0789      	lsls	r1, r1, #30
 8001070:	d100      	bne.n	8001074 <HAL_RCC_OscConfig+0x1c8>
 8001072:	e731      	b.n	8000ed8 <HAL_RCC_OscConfig+0x2c>
 8001074:	2280      	movs	r2, #128	@ 0x80
 8001076:	6863      	ldr	r3, [r4, #4]
 8001078:	0252      	lsls	r2, r2, #9
 800107a:	4293      	cmp	r3, r2
 800107c:	d02b      	beq.n	80010d6 <HAL_RCC_OscConfig+0x22a>
 800107e:	21a0      	movs	r1, #160	@ 0xa0
 8001080:	02c9      	lsls	r1, r1, #11
 8001082:	428b      	cmp	r3, r1
 8001084:	d100      	bne.n	8001088 <HAL_RCC_OscConfig+0x1dc>
 8001086:	e0fc      	b.n	8001282 <HAL_RCC_OscConfig+0x3d6>
 8001088:	4d4f      	ldr	r5, [pc, #316]	@ (80011c8 <HAL_RCC_OscConfig+0x31c>)
 800108a:	4959      	ldr	r1, [pc, #356]	@ (80011f0 <HAL_RCC_OscConfig+0x344>)
 800108c:	682a      	ldr	r2, [r5, #0]
 800108e:	400a      	ands	r2, r1
 8001090:	602a      	str	r2, [r5, #0]
 8001092:	682a      	ldr	r2, [r5, #0]
 8001094:	4957      	ldr	r1, [pc, #348]	@ (80011f4 <HAL_RCC_OscConfig+0x348>)
 8001096:	400a      	ands	r2, r1
 8001098:	602a      	str	r2, [r5, #0]
 800109a:	2b00      	cmp	r3, #0
 800109c:	d11f      	bne.n	80010de <HAL_RCC_OscConfig+0x232>
 800109e:	f7ff fc4f 	bl	8000940 <HAL_GetTick>
 80010a2:	2780      	movs	r7, #128	@ 0x80
 80010a4:	0006      	movs	r6, r0
 80010a6:	02bf      	lsls	r7, r7, #10
 80010a8:	e004      	b.n	80010b4 <HAL_RCC_OscConfig+0x208>
 80010aa:	f7ff fc49 	bl	8000940 <HAL_GetTick>
 80010ae:	1b80      	subs	r0, r0, r6
 80010b0:	2864      	cmp	r0, #100	@ 0x64
 80010b2:	d87e      	bhi.n	80011b2 <HAL_RCC_OscConfig+0x306>
 80010b4:	682b      	ldr	r3, [r5, #0]
 80010b6:	423b      	tst	r3, r7
 80010b8:	d1f7      	bne.n	80010aa <HAL_RCC_OscConfig+0x1fe>
 80010ba:	6823      	ldr	r3, [r4, #0]
 80010bc:	079a      	lsls	r2, r3, #30
 80010be:	d400      	bmi.n	80010c2 <HAL_RCC_OscConfig+0x216>
 80010c0:	e746      	b.n	8000f50 <HAL_RCC_OscConfig+0xa4>
 80010c2:	e712      	b.n	8000eea <HAL_RCC_OscConfig+0x3e>
 80010c4:	6e2a      	ldr	r2, [r5, #96]	@ 0x60
 80010c6:	0792      	lsls	r2, r2, #30
 80010c8:	d400      	bmi.n	80010cc <HAL_RCC_OscConfig+0x220>
 80010ca:	e743      	b.n	8000f54 <HAL_RCC_OscConfig+0xa8>
 80010cc:	69a2      	ldr	r2, [r4, #24]
 80010ce:	2a00      	cmp	r2, #0
 80010d0:	d000      	beq.n	80010d4 <HAL_RCC_OscConfig+0x228>
 80010d2:	e73f      	b.n	8000f54 <HAL_RCC_OscConfig+0xa8>
 80010d4:	e71a      	b.n	8000f0c <HAL_RCC_OscConfig+0x60>
 80010d6:	4a3c      	ldr	r2, [pc, #240]	@ (80011c8 <HAL_RCC_OscConfig+0x31c>)
 80010d8:	6811      	ldr	r1, [r2, #0]
 80010da:	430b      	orrs	r3, r1
 80010dc:	6013      	str	r3, [r2, #0]
 80010de:	f7ff fc2f 	bl	8000940 <HAL_GetTick>
 80010e2:	2680      	movs	r6, #128	@ 0x80
 80010e4:	0005      	movs	r5, r0
 80010e6:	4f38      	ldr	r7, [pc, #224]	@ (80011c8 <HAL_RCC_OscConfig+0x31c>)
 80010e8:	02b6      	lsls	r6, r6, #10
 80010ea:	e004      	b.n	80010f6 <HAL_RCC_OscConfig+0x24a>
 80010ec:	f7ff fc28 	bl	8000940 <HAL_GetTick>
 80010f0:	1b40      	subs	r0, r0, r5
 80010f2:	2864      	cmp	r0, #100	@ 0x64
 80010f4:	d85d      	bhi.n	80011b2 <HAL_RCC_OscConfig+0x306>
 80010f6:	683b      	ldr	r3, [r7, #0]
 80010f8:	4233      	tst	r3, r6
 80010fa:	d0f7      	beq.n	80010ec <HAL_RCC_OscConfig+0x240>
 80010fc:	6823      	ldr	r3, [r4, #0]
 80010fe:	e7dd      	b.n	80010bc <HAL_RCC_OscConfig+0x210>
 8001100:	6dd3      	ldr	r3, [r2, #92]	@ 0x5c
 8001102:	079b      	lsls	r3, r3, #30
 8001104:	d400      	bmi.n	8001108 <HAL_RCC_OscConfig+0x25c>
 8001106:	e76d      	b.n	8000fe4 <HAL_RCC_OscConfig+0x138>
 8001108:	68a3      	ldr	r3, [r4, #8]
 800110a:	2b00      	cmp	r3, #0
 800110c:	d000      	beq.n	8001110 <HAL_RCC_OscConfig+0x264>
 800110e:	e769      	b.n	8000fe4 <HAL_RCC_OscConfig+0x138>
 8001110:	e6fc      	b.n	8000f0c <HAL_RCC_OscConfig+0x60>
 8001112:	3b0d      	subs	r3, #13
 8001114:	400b      	ands	r3, r1
 8001116:	2b02      	cmp	r3, #2
 8001118:	d100      	bne.n	800111c <HAL_RCC_OscConfig+0x270>
 800111a:	e0bc      	b.n	8001296 <HAL_RCC_OscConfig+0x3ea>
 800111c:	68e3      	ldr	r3, [r4, #12]
 800111e:	4d2a      	ldr	r5, [pc, #168]	@ (80011c8 <HAL_RCC_OscConfig+0x31c>)
 8001120:	2b00      	cmp	r3, #0
 8001122:	d073      	beq.n	800120c <HAL_RCC_OscConfig+0x360>
 8001124:	682b      	ldr	r3, [r5, #0]
 8001126:	4a2a      	ldr	r2, [pc, #168]	@ (80011d0 <HAL_RCC_OscConfig+0x324>)
 8001128:	2780      	movs	r7, #128	@ 0x80
 800112a:	4013      	ands	r3, r2
 800112c:	6922      	ldr	r2, [r4, #16]
 800112e:	00ff      	lsls	r7, r7, #3
 8001130:	4313      	orrs	r3, r2
 8001132:	602b      	str	r3, [r5, #0]
 8001134:	2380      	movs	r3, #128	@ 0x80
 8001136:	682a      	ldr	r2, [r5, #0]
 8001138:	005b      	lsls	r3, r3, #1
 800113a:	4313      	orrs	r3, r2
 800113c:	602b      	str	r3, [r5, #0]
 800113e:	f7ff fbff 	bl	8000940 <HAL_GetTick>
 8001142:	0006      	movs	r6, r0
 8001144:	e004      	b.n	8001150 <HAL_RCC_OscConfig+0x2a4>
 8001146:	f7ff fbfb 	bl	8000940 <HAL_GetTick>
 800114a:	1b80      	subs	r0, r0, r6
 800114c:	2802      	cmp	r0, #2
 800114e:	d830      	bhi.n	80011b2 <HAL_RCC_OscConfig+0x306>
 8001150:	682b      	ldr	r3, [r5, #0]
 8001152:	423b      	tst	r3, r7
 8001154:	d0f7      	beq.n	8001146 <HAL_RCC_OscConfig+0x29a>
 8001156:	686a      	ldr	r2, [r5, #4]
 8001158:	6963      	ldr	r3, [r4, #20]
 800115a:	491c      	ldr	r1, [pc, #112]	@ (80011cc <HAL_RCC_OscConfig+0x320>)
 800115c:	021b      	lsls	r3, r3, #8
 800115e:	400a      	ands	r2, r1
 8001160:	4313      	orrs	r3, r2
 8001162:	606b      	str	r3, [r5, #4]
 8001164:	6823      	ldr	r3, [r4, #0]
 8001166:	e6f3      	b.n	8000f50 <HAL_RCC_OscConfig+0xa4>
 8001168:	4917      	ldr	r1, [pc, #92]	@ (80011c8 <HAL_RCC_OscConfig+0x31c>)
 800116a:	6dca      	ldr	r2, [r1, #92]	@ 0x5c
 800116c:	4313      	orrs	r3, r2
 800116e:	65cb      	str	r3, [r1, #92]	@ 0x5c
 8001170:	f7ff fbe6 	bl	8000940 <HAL_GetTick>
 8001174:	4b14      	ldr	r3, [pc, #80]	@ (80011c8 <HAL_RCC_OscConfig+0x31c>)
 8001176:	0006      	movs	r6, r0
 8001178:	4698      	mov	r8, r3
 800117a:	2702      	movs	r7, #2
 800117c:	4d19      	ldr	r5, [pc, #100]	@ (80011e4 <HAL_RCC_OscConfig+0x338>)
 800117e:	e004      	b.n	800118a <HAL_RCC_OscConfig+0x2de>
 8001180:	f7ff fbde 	bl	8000940 <HAL_GetTick>
 8001184:	1b80      	subs	r0, r0, r6
 8001186:	42a8      	cmp	r0, r5
 8001188:	d813      	bhi.n	80011b2 <HAL_RCC_OscConfig+0x306>
 800118a:	4643      	mov	r3, r8
 800118c:	6ddb      	ldr	r3, [r3, #92]	@ 0x5c
 800118e:	421f      	tst	r7, r3
 8001190:	d0f6      	beq.n	8001180 <HAL_RCC_OscConfig+0x2d4>
 8001192:	e723      	b.n	8000fdc <HAL_RCC_OscConfig+0x130>
 8001194:	6833      	ldr	r3, [r6, #0]
 8001196:	433b      	orrs	r3, r7
 8001198:	6033      	str	r3, [r6, #0]
 800119a:	f7ff fbd1 	bl	8000940 <HAL_GetTick>
 800119e:	0005      	movs	r5, r0
 80011a0:	6833      	ldr	r3, [r6, #0]
 80011a2:	423b      	tst	r3, r7
 80011a4:	d000      	beq.n	80011a8 <HAL_RCC_OscConfig+0x2fc>
 80011a6:	e6f5      	b.n	8000f94 <HAL_RCC_OscConfig+0xe8>
 80011a8:	f7ff fbca 	bl	8000940 <HAL_GetTick>
 80011ac:	1b40      	subs	r0, r0, r5
 80011ae:	2802      	cmp	r0, #2
 80011b0:	d9f6      	bls.n	80011a0 <HAL_RCC_OscConfig+0x2f4>
 80011b2:	2003      	movs	r0, #3
 80011b4:	e6ab      	b.n	8000f0e <HAL_RCC_OscConfig+0x62>
 80011b6:	2201      	movs	r2, #1
 80011b8:	6e2b      	ldr	r3, [r5, #96]	@ 0x60
 80011ba:	2702      	movs	r7, #2
 80011bc:	4393      	bics	r3, r2
 80011be:	662b      	str	r3, [r5, #96]	@ 0x60
 80011c0:	f7ff fbbe 	bl	8000940 <HAL_GetTick>
 80011c4:	0006      	movs	r6, r0
 80011c6:	e01c      	b.n	8001202 <HAL_RCC_OscConfig+0x356>
 80011c8:	40021000 	.word	0x40021000
 80011cc:	ffff80ff 	.word	0xffff80ff
 80011d0:	ffffc7ff 	.word	0xffffc7ff
 80011d4:	00f42400 	.word	0x00f42400
 80011d8:	20000000 	.word	0x20000000
 80011dc:	20000008 	.word	0x20000008
 80011e0:	40007000 	.word	0x40007000
 80011e4:	00001388 	.word	0x00001388
 80011e8:	feffffff 	.word	0xfeffffff
 80011ec:	effefffc 	.word	0xeffefffc
 80011f0:	fffeffff 	.word	0xfffeffff
 80011f4:	fffbffff 	.word	0xfffbffff
 80011f8:	f7ff fba2 	bl	8000940 <HAL_GetTick>
 80011fc:	1b80      	subs	r0, r0, r6
 80011fe:	2802      	cmp	r0, #2
 8001200:	d8d7      	bhi.n	80011b2 <HAL_RCC_OscConfig+0x306>
 8001202:	6e2b      	ldr	r3, [r5, #96]	@ 0x60
 8001204:	421f      	tst	r7, r3
 8001206:	d1f7      	bne.n	80011f8 <HAL_RCC_OscConfig+0x34c>
 8001208:	6823      	ldr	r3, [r4, #0]
 800120a:	e6a3      	b.n	8000f54 <HAL_RCC_OscConfig+0xa8>
 800120c:	682b      	ldr	r3, [r5, #0]
 800120e:	4a50      	ldr	r2, [pc, #320]	@ (8001350 <HAL_RCC_OscConfig+0x4a4>)
 8001210:	2780      	movs	r7, #128	@ 0x80
 8001212:	4013      	ands	r3, r2
 8001214:	602b      	str	r3, [r5, #0]
 8001216:	f7ff fb93 	bl	8000940 <HAL_GetTick>
 800121a:	00ff      	lsls	r7, r7, #3
 800121c:	0006      	movs	r6, r0
 800121e:	e004      	b.n	800122a <HAL_RCC_OscConfig+0x37e>
 8001220:	f7ff fb8e 	bl	8000940 <HAL_GetTick>
 8001224:	1b80      	subs	r0, r0, r6
 8001226:	2802      	cmp	r0, #2
 8001228:	d8c3      	bhi.n	80011b2 <HAL_RCC_OscConfig+0x306>
 800122a:	682b      	ldr	r3, [r5, #0]
 800122c:	423b      	tst	r3, r7
 800122e:	d1f7      	bne.n	8001220 <HAL_RCC_OscConfig+0x374>
 8001230:	6823      	ldr	r3, [r4, #0]
 8001232:	e68d      	b.n	8000f50 <HAL_RCC_OscConfig+0xa4>
 8001234:	2b01      	cmp	r3, #1
 8001236:	d100      	bne.n	800123a <HAL_RCC_OscConfig+0x38e>
 8001238:	e668      	b.n	8000f0c <HAL_RCC_OscConfig+0x60>
 800123a:	2203      	movs	r2, #3
 800123c:	68e8      	ldr	r0, [r5, #12]
 800123e:	6a21      	ldr	r1, [r4, #32]
 8001240:	4002      	ands	r2, r0
 8001242:	428a      	cmp	r2, r1
 8001244:	d000      	beq.n	8001248 <HAL_RCC_OscConfig+0x39c>
 8001246:	e661      	b.n	8000f0c <HAL_RCC_OscConfig+0x60>
 8001248:	2270      	movs	r2, #112	@ 0x70
 800124a:	6a61      	ldr	r1, [r4, #36]	@ 0x24
 800124c:	4002      	ands	r2, r0
 800124e:	428a      	cmp	r2, r1
 8001250:	d000      	beq.n	8001254 <HAL_RCC_OscConfig+0x3a8>
 8001252:	e65b      	b.n	8000f0c <HAL_RCC_OscConfig+0x60>
 8001254:	21fe      	movs	r1, #254	@ 0xfe
 8001256:	6aa2      	ldr	r2, [r4, #40]	@ 0x28
 8001258:	01c9      	lsls	r1, r1, #7
 800125a:	4001      	ands	r1, r0
 800125c:	0212      	lsls	r2, r2, #8
 800125e:	4291      	cmp	r1, r2
 8001260:	d000      	beq.n	8001264 <HAL_RCC_OscConfig+0x3b8>
 8001262:	e653      	b.n	8000f0c <HAL_RCC_OscConfig+0x60>
 8001264:	22f8      	movs	r2, #248	@ 0xf8
 8001266:	6ae1      	ldr	r1, [r4, #44]	@ 0x2c
 8001268:	0392      	lsls	r2, r2, #14
 800126a:	4002      	ands	r2, r0
 800126c:	428a      	cmp	r2, r1
 800126e:	d000      	beq.n	8001272 <HAL_RCC_OscConfig+0x3c6>
 8001270:	e64c      	b.n	8000f0c <HAL_RCC_OscConfig+0x60>
 8001272:	6b23      	ldr	r3, [r4, #48]	@ 0x30
 8001274:	0f40      	lsrs	r0, r0, #29
 8001276:	0740      	lsls	r0, r0, #29
 8001278:	1ac0      	subs	r0, r0, r3
 800127a:	1e43      	subs	r3, r0, #1
 800127c:	4198      	sbcs	r0, r3
 800127e:	b2c0      	uxtb	r0, r0
 8001280:	e645      	b.n	8000f0e <HAL_RCC_OscConfig+0x62>
 8001282:	2180      	movs	r1, #128	@ 0x80
 8001284:	4b33      	ldr	r3, [pc, #204]	@ (8001354 <HAL_RCC_OscConfig+0x4a8>)
 8001286:	02c9      	lsls	r1, r1, #11
 8001288:	6818      	ldr	r0, [r3, #0]
 800128a:	4301      	orrs	r1, r0
 800128c:	6019      	str	r1, [r3, #0]
 800128e:	6819      	ldr	r1, [r3, #0]
 8001290:	430a      	orrs	r2, r1
 8001292:	601a      	str	r2, [r3, #0]
 8001294:	e723      	b.n	80010de <HAL_RCC_OscConfig+0x232>
 8001296:	6813      	ldr	r3, [r2, #0]
 8001298:	055b      	lsls	r3, r3, #21
 800129a:	d455      	bmi.n	8001348 <HAL_RCC_OscConfig+0x49c>
 800129c:	6851      	ldr	r1, [r2, #4]
 800129e:	6963      	ldr	r3, [r4, #20]
 80012a0:	482d      	ldr	r0, [pc, #180]	@ (8001358 <HAL_RCC_OscConfig+0x4ac>)
 80012a2:	021b      	lsls	r3, r3, #8
 80012a4:	4001      	ands	r1, r0
 80012a6:	430b      	orrs	r3, r1
 80012a8:	6053      	str	r3, [r2, #4]
 80012aa:	e64a      	b.n	8000f42 <HAL_RCC_OscConfig+0x96>
 80012ac:	4a29      	ldr	r2, [pc, #164]	@ (8001354 <HAL_RCC_OscConfig+0x4a8>)
 80012ae:	492b      	ldr	r1, [pc, #172]	@ (800135c <HAL_RCC_OscConfig+0x4b0>)
 80012b0:	6bd3      	ldr	r3, [r2, #60]	@ 0x3c
 80012b2:	400b      	ands	r3, r1
 80012b4:	63d3      	str	r3, [r2, #60]	@ 0x3c
 80012b6:	e695      	b.n	8000fe4 <HAL_RCC_OscConfig+0x138>
 80012b8:	682b      	ldr	r3, [r5, #0]
 80012ba:	4a29      	ldr	r2, [pc, #164]	@ (8001360 <HAL_RCC_OscConfig+0x4b4>)
 80012bc:	2780      	movs	r7, #128	@ 0x80
 80012be:	4013      	ands	r3, r2
 80012c0:	602b      	str	r3, [r5, #0]
 80012c2:	f7ff fb3d 	bl	8000940 <HAL_GetTick>
 80012c6:	04bf      	lsls	r7, r7, #18
 80012c8:	0006      	movs	r6, r0
 80012ca:	e005      	b.n	80012d8 <HAL_RCC_OscConfig+0x42c>
 80012cc:	f7ff fb38 	bl	8000940 <HAL_GetTick>
 80012d0:	1b80      	subs	r0, r0, r6
 80012d2:	2802      	cmp	r0, #2
 80012d4:	d900      	bls.n	80012d8 <HAL_RCC_OscConfig+0x42c>
 80012d6:	e76c      	b.n	80011b2 <HAL_RCC_OscConfig+0x306>
 80012d8:	682b      	ldr	r3, [r5, #0]
 80012da:	423b      	tst	r3, r7
 80012dc:	d1f6      	bne.n	80012cc <HAL_RCC_OscConfig+0x420>
 80012de:	6a61      	ldr	r1, [r4, #36]	@ 0x24
 80012e0:	6a23      	ldr	r3, [r4, #32]
 80012e2:	68ea      	ldr	r2, [r5, #12]
 80012e4:	430b      	orrs	r3, r1
 80012e6:	491f      	ldr	r1, [pc, #124]	@ (8001364 <HAL_RCC_OscConfig+0x4b8>)
 80012e8:	4e1a      	ldr	r6, [pc, #104]	@ (8001354 <HAL_RCC_OscConfig+0x4a8>)
 80012ea:	400a      	ands	r2, r1
 80012ec:	4313      	orrs	r3, r2
 80012ee:	6ae2      	ldr	r2, [r4, #44]	@ 0x2c
 80012f0:	4313      	orrs	r3, r2
 80012f2:	6b22      	ldr	r2, [r4, #48]	@ 0x30
 80012f4:	4313      	orrs	r3, r2
 80012f6:	6aa2      	ldr	r2, [r4, #40]	@ 0x28
 80012f8:	0212      	lsls	r2, r2, #8
 80012fa:	4313      	orrs	r3, r2
 80012fc:	60eb      	str	r3, [r5, #12]
 80012fe:	2380      	movs	r3, #128	@ 0x80
 8001300:	682a      	ldr	r2, [r5, #0]
 8001302:	045b      	lsls	r3, r3, #17
 8001304:	4313      	orrs	r3, r2
 8001306:	602b      	str	r3, [r5, #0]
 8001308:	2380      	movs	r3, #128	@ 0x80
 800130a:	68ea      	ldr	r2, [r5, #12]
 800130c:	055b      	lsls	r3, r3, #21
 800130e:	4313      	orrs	r3, r2
 8001310:	60eb      	str	r3, [r5, #12]
 8001312:	f7ff fb15 	bl	8000940 <HAL_GetTick>
 8001316:	2580      	movs	r5, #128	@ 0x80
 8001318:	0004      	movs	r4, r0
 800131a:	04ad      	lsls	r5, r5, #18
 800131c:	e005      	b.n	800132a <HAL_RCC_OscConfig+0x47e>
 800131e:	f7ff fb0f 	bl	8000940 <HAL_GetTick>
 8001322:	1b00      	subs	r0, r0, r4
 8001324:	2802      	cmp	r0, #2
 8001326:	d900      	bls.n	800132a <HAL_RCC_OscConfig+0x47e>
 8001328:	e743      	b.n	80011b2 <HAL_RCC_OscConfig+0x306>
 800132a:	6833      	ldr	r3, [r6, #0]
 800132c:	422b      	tst	r3, r5
 800132e:	d0f6      	beq.n	800131e <HAL_RCC_OscConfig+0x472>
 8001330:	2000      	movs	r0, #0
 8001332:	e5ec      	b.n	8000f0e <HAL_RCC_OscConfig+0x62>
 8001334:	2104      	movs	r1, #4
 8001336:	4b07      	ldr	r3, [pc, #28]	@ (8001354 <HAL_RCC_OscConfig+0x4a8>)
 8001338:	6dda      	ldr	r2, [r3, #92]	@ 0x5c
 800133a:	430a      	orrs	r2, r1
 800133c:	65da      	str	r2, [r3, #92]	@ 0x5c
 800133e:	6dda      	ldr	r2, [r3, #92]	@ 0x5c
 8001340:	3903      	subs	r1, #3
 8001342:	430a      	orrs	r2, r1
 8001344:	65da      	str	r2, [r3, #92]	@ 0x5c
 8001346:	e713      	b.n	8001170 <HAL_RCC_OscConfig+0x2c4>
 8001348:	68e3      	ldr	r3, [r4, #12]
 800134a:	2b00      	cmp	r3, #0
 800134c:	d1a6      	bne.n	800129c <HAL_RCC_OscConfig+0x3f0>
 800134e:	e5dd      	b.n	8000f0c <HAL_RCC_OscConfig+0x60>
 8001350:	fffffeff 	.word	0xfffffeff
 8001354:	40021000 	.word	0x40021000
 8001358:	ffff80ff 	.word	0xffff80ff
 800135c:	efffffff 	.word	0xefffffff
 8001360:	feffffff 	.word	0xfeffffff
 8001364:	1fc1808c 	.word	0x1fc1808c

08001368 <HAL_RCC_GetSysClockFreq>:
 8001368:	2338      	movs	r3, #56	@ 0x38
 800136a:	4a22      	ldr	r2, [pc, #136]	@ (80013f4 <HAL_RCC_GetSysClockFreq+0x8c>)
 800136c:	b510      	push	{r4, lr}
 800136e:	6891      	ldr	r1, [r2, #8]
 8001370:	420b      	tst	r3, r1
 8001372:	d105      	bne.n	8001380 <HAL_RCC_GetSysClockFreq+0x18>
 8001374:	6813      	ldr	r3, [r2, #0]
 8001376:	4820      	ldr	r0, [pc, #128]	@ (80013f8 <HAL_RCC_GetSysClockFreq+0x90>)
 8001378:	049b      	lsls	r3, r3, #18
 800137a:	0f5b      	lsrs	r3, r3, #29
 800137c:	40d8      	lsrs	r0, r3
 800137e:	bd10      	pop	{r4, pc}
 8001380:	6891      	ldr	r1, [r2, #8]
 8001382:	4019      	ands	r1, r3
 8001384:	2908      	cmp	r1, #8
 8001386:	d014      	beq.n	80013b2 <HAL_RCC_GetSysClockFreq+0x4a>
 8001388:	6891      	ldr	r1, [r2, #8]
 800138a:	4019      	ands	r1, r3
 800138c:	2910      	cmp	r1, #16
 800138e:	d012      	beq.n	80013b6 <HAL_RCC_GetSysClockFreq+0x4e>
 8001390:	6891      	ldr	r1, [r2, #8]
 8001392:	4019      	ands	r1, r3
 8001394:	2920      	cmp	r1, #32
 8001396:	d024      	beq.n	80013e2 <HAL_RCC_GetSysClockFreq+0x7a>
 8001398:	6890      	ldr	r0, [r2, #8]
 800139a:	4018      	ands	r0, r3
 800139c:	3818      	subs	r0, #24
 800139e:	1e43      	subs	r3, r0, #1
 80013a0:	4198      	sbcs	r0, r3
 80013a2:	4b16      	ldr	r3, [pc, #88]	@ (80013fc <HAL_RCC_GetSysClockFreq+0x94>)
 80013a4:	4240      	negs	r0, r0
 80013a6:	4018      	ands	r0, r3
 80013a8:	23fa      	movs	r3, #250	@ 0xfa
 80013aa:	01db      	lsls	r3, r3, #7
 80013ac:	469c      	mov	ip, r3
 80013ae:	4460      	add	r0, ip
 80013b0:	e7e5      	b.n	800137e <HAL_RCC_GetSysClockFreq+0x16>
 80013b2:	4813      	ldr	r0, [pc, #76]	@ (8001400 <HAL_RCC_GetSysClockFreq+0x98>)
 80013b4:	e7e3      	b.n	800137e <HAL_RCC_GetSysClockFreq+0x16>
 80013b6:	68d3      	ldr	r3, [r2, #12]
 80013b8:	68d1      	ldr	r1, [r2, #12]
 80013ba:	43db      	mvns	r3, r3
 80013bc:	68d4      	ldr	r4, [r2, #12]
 80013be:	0649      	lsls	r1, r1, #25
 80013c0:	0f49      	lsrs	r1, r1, #29
 80013c2:	0464      	lsls	r4, r4, #17
 80013c4:	3101      	adds	r1, #1
 80013c6:	0e64      	lsrs	r4, r4, #25
 80013c8:	079b      	lsls	r3, r3, #30
 80013ca:	d00d      	beq.n	80013e8 <HAL_RCC_GetSysClockFreq+0x80>
 80013cc:	480a      	ldr	r0, [pc, #40]	@ (80013f8 <HAL_RCC_GetSysClockFreq+0x90>)
 80013ce:	f7fe fe97 	bl	8000100 <__udivsi3>
 80013d2:	4360      	muls	r0, r4
 80013d4:	4b07      	ldr	r3, [pc, #28]	@ (80013f4 <HAL_RCC_GetSysClockFreq+0x8c>)
 80013d6:	68d9      	ldr	r1, [r3, #12]
 80013d8:	0f49      	lsrs	r1, r1, #29
 80013da:	3101      	adds	r1, #1
 80013dc:	f7fe fe90 	bl	8000100 <__udivsi3>
 80013e0:	e7cd      	b.n	800137e <HAL_RCC_GetSysClockFreq+0x16>
 80013e2:	2080      	movs	r0, #128	@ 0x80
 80013e4:	0200      	lsls	r0, r0, #8
 80013e6:	e7ca      	b.n	800137e <HAL_RCC_GetSysClockFreq+0x16>
 80013e8:	4805      	ldr	r0, [pc, #20]	@ (8001400 <HAL_RCC_GetSysClockFreq+0x98>)
 80013ea:	f7fe fe89 	bl	8000100 <__udivsi3>
 80013ee:	4360      	muls	r0, r4
 80013f0:	e7f0      	b.n	80013d4 <HAL_RCC_GetSysClockFreq+0x6c>
 80013f2:	46c0      	nop			@ (mov r8, r8)
 80013f4:	40021000 	.word	0x40021000
 80013f8:	00f42400 	.word	0x00f42400
 80013fc:	ffff8300 	.word	0xffff8300
 8001400:	007a1200 	.word	0x007a1200

08001404 <HAL_RCC_ClockConfig>:
 8001404:	b5f8      	push	{r3, r4, r5, r6, r7, lr}
 8001406:	46ce      	mov	lr, r9
 8001408:	4647      	mov	r7, r8
 800140a:	0005      	movs	r5, r0
 800140c:	000c      	movs	r4, r1
 800140e:	b580      	push	{r7, lr}
 8001410:	2800      	cmp	r0, #0
 8001412:	d026      	beq.n	8001462 <HAL_RCC_ClockConfig+0x5e>
 8001414:	2207      	movs	r2, #7
 8001416:	4e57      	ldr	r6, [pc, #348]	@ (8001574 <HAL_RCC_ClockConfig+0x170>)
 8001418:	6833      	ldr	r3, [r6, #0]
 800141a:	4013      	ands	r3, r2
 800141c:	428b      	cmp	r3, r1
 800141e:	d35e      	bcc.n	80014de <HAL_RCC_ClockConfig+0xda>
 8001420:	682b      	ldr	r3, [r5, #0]
 8001422:	079a      	lsls	r2, r3, #30
 8001424:	d50e      	bpl.n	8001444 <HAL_RCC_ClockConfig+0x40>
 8001426:	075a      	lsls	r2, r3, #29
 8001428:	d505      	bpl.n	8001436 <HAL_RCC_ClockConfig+0x32>
 800142a:	22e0      	movs	r2, #224	@ 0xe0
 800142c:	4952      	ldr	r1, [pc, #328]	@ (8001578 <HAL_RCC_ClockConfig+0x174>)
 800142e:	01d2      	lsls	r2, r2, #7
 8001430:	6888      	ldr	r0, [r1, #8]
 8001432:	4302      	orrs	r2, r0
 8001434:	608a      	str	r2, [r1, #8]
 8001436:	4950      	ldr	r1, [pc, #320]	@ (8001578 <HAL_RCC_ClockConfig+0x174>)
 8001438:	4850      	ldr	r0, [pc, #320]	@ (800157c <HAL_RCC_ClockConfig+0x178>)
 800143a:	688a      	ldr	r2, [r1, #8]
 800143c:	4002      	ands	r2, r0
 800143e:	68a8      	ldr	r0, [r5, #8]
 8001440:	4302      	orrs	r2, r0
 8001442:	608a      	str	r2, [r1, #8]
 8001444:	07db      	lsls	r3, r3, #31
 8001446:	d52b      	bpl.n	80014a0 <HAL_RCC_ClockConfig+0x9c>
 8001448:	686b      	ldr	r3, [r5, #4]
 800144a:	4a4b      	ldr	r2, [pc, #300]	@ (8001578 <HAL_RCC_ClockConfig+0x174>)
 800144c:	2b01      	cmp	r3, #1
 800144e:	d100      	bne.n	8001452 <HAL_RCC_ClockConfig+0x4e>
 8001450:	e07c      	b.n	800154c <HAL_RCC_ClockConfig+0x148>
 8001452:	2b02      	cmp	r3, #2
 8001454:	d007      	beq.n	8001466 <HAL_RCC_ClockConfig+0x62>
 8001456:	2b00      	cmp	r3, #0
 8001458:	d000      	beq.n	800145c <HAL_RCC_ClockConfig+0x58>
 800145a:	e07d      	b.n	8001558 <HAL_RCC_ClockConfig+0x154>
 800145c:	6812      	ldr	r2, [r2, #0]
 800145e:	0552      	lsls	r2, r2, #21
 8001460:	d404      	bmi.n	800146c <HAL_RCC_ClockConfig+0x68>
 8001462:	2001      	movs	r0, #1
 8001464:	e037      	b.n	80014d6 <HAL_RCC_ClockConfig+0xd2>
 8001466:	6812      	ldr	r2, [r2, #0]
 8001468:	0192      	lsls	r2, r2, #6
 800146a:	d5fa      	bpl.n	8001462 <HAL_RCC_ClockConfig+0x5e>
 800146c:	2107      	movs	r1, #7
 800146e:	4e42      	ldr	r6, [pc, #264]	@ (8001578 <HAL_RCC_ClockConfig+0x174>)
 8001470:	68b2      	ldr	r2, [r6, #8]
 8001472:	438a      	bics	r2, r1
 8001474:	4313      	orrs	r3, r2
 8001476:	60b3      	str	r3, [r6, #8]
 8001478:	f7ff fa62 	bl	8000940 <HAL_GetTick>
 800147c:	2338      	movs	r3, #56	@ 0x38
 800147e:	4698      	mov	r8, r3
 8001480:	4b3f      	ldr	r3, [pc, #252]	@ (8001580 <HAL_RCC_ClockConfig+0x17c>)
 8001482:	0007      	movs	r7, r0
 8001484:	4699      	mov	r9, r3
 8001486:	e004      	b.n	8001492 <HAL_RCC_ClockConfig+0x8e>
 8001488:	f7ff fa5a 	bl	8000940 <HAL_GetTick>
 800148c:	1bc0      	subs	r0, r0, r7
 800148e:	4548      	cmp	r0, r9
 8001490:	d83b      	bhi.n	800150a <HAL_RCC_ClockConfig+0x106>
 8001492:	4643      	mov	r3, r8
 8001494:	68b2      	ldr	r2, [r6, #8]
 8001496:	401a      	ands	r2, r3
 8001498:	686b      	ldr	r3, [r5, #4]
 800149a:	00db      	lsls	r3, r3, #3
 800149c:	429a      	cmp	r2, r3
 800149e:	d1f3      	bne.n	8001488 <HAL_RCC_ClockConfig+0x84>
 80014a0:	2207      	movs	r2, #7
 80014a2:	4e34      	ldr	r6, [pc, #208]	@ (8001574 <HAL_RCC_ClockConfig+0x170>)
 80014a4:	6833      	ldr	r3, [r6, #0]
 80014a6:	4013      	ands	r3, r2
 80014a8:	42a3      	cmp	r3, r4
 80014aa:	d838      	bhi.n	800151e <HAL_RCC_ClockConfig+0x11a>
 80014ac:	682b      	ldr	r3, [r5, #0]
 80014ae:	075b      	lsls	r3, r3, #29
 80014b0:	d42d      	bmi.n	800150e <HAL_RCC_ClockConfig+0x10a>
 80014b2:	f7ff ff59 	bl	8001368 <HAL_RCC_GetSysClockFreq>
 80014b6:	4b30      	ldr	r3, [pc, #192]	@ (8001578 <HAL_RCC_ClockConfig+0x174>)
 80014b8:	4a32      	ldr	r2, [pc, #200]	@ (8001584 <HAL_RCC_ClockConfig+0x180>)
 80014ba:	689b      	ldr	r3, [r3, #8]
 80014bc:	4932      	ldr	r1, [pc, #200]	@ (8001588 <HAL_RCC_ClockConfig+0x184>)
 80014be:	051b      	lsls	r3, r3, #20
 80014c0:	0f1b      	lsrs	r3, r3, #28
 80014c2:	009b      	lsls	r3, r3, #2
 80014c4:	589b      	ldr	r3, [r3, r2]
 80014c6:	221f      	movs	r2, #31
 80014c8:	4013      	ands	r3, r2
 80014ca:	40d8      	lsrs	r0, r3
 80014cc:	4b2f      	ldr	r3, [pc, #188]	@ (800158c <HAL_RCC_ClockConfig+0x188>)
 80014ce:	6008      	str	r0, [r1, #0]
 80014d0:	6818      	ldr	r0, [r3, #0]
 80014d2:	f7ff f9ef 	bl	80008b4 <HAL_InitTick>
 80014d6:	bcc0      	pop	{r6, r7}
 80014d8:	46b9      	mov	r9, r7
 80014da:	46b0      	mov	r8, r6
 80014dc:	bdf8      	pop	{r3, r4, r5, r6, r7, pc}
 80014de:	6833      	ldr	r3, [r6, #0]
 80014e0:	4393      	bics	r3, r2
 80014e2:	430b      	orrs	r3, r1
 80014e4:	6033      	str	r3, [r6, #0]
 80014e6:	f7ff fa2b 	bl	8000940 <HAL_GetTick>
 80014ea:	2307      	movs	r3, #7
 80014ec:	4698      	mov	r8, r3
 80014ee:	4b24      	ldr	r3, [pc, #144]	@ (8001580 <HAL_RCC_ClockConfig+0x17c>)
 80014f0:	0007      	movs	r7, r0
 80014f2:	4699      	mov	r9, r3
 80014f4:	4642      	mov	r2, r8
 80014f6:	6833      	ldr	r3, [r6, #0]
 80014f8:	4013      	ands	r3, r2
 80014fa:	42a3      	cmp	r3, r4
 80014fc:	d100      	bne.n	8001500 <HAL_RCC_ClockConfig+0xfc>
 80014fe:	e78f      	b.n	8001420 <HAL_RCC_ClockConfig+0x1c>
 8001500:	f7ff fa1e 	bl	8000940 <HAL_GetTick>
 8001504:	1bc0      	subs	r0, r0, r7
 8001506:	4548      	cmp	r0, r9
 8001508:	d9f4      	bls.n	80014f4 <HAL_RCC_ClockConfig+0xf0>
 800150a:	2003      	movs	r0, #3
 800150c:	e7e3      	b.n	80014d6 <HAL_RCC_ClockConfig+0xd2>
 800150e:	4a1a      	ldr	r2, [pc, #104]	@ (8001578 <HAL_RCC_ClockConfig+0x174>)
 8001510:	491f      	ldr	r1, [pc, #124]	@ (8001590 <HAL_RCC_ClockConfig+0x18c>)
 8001512:	6893      	ldr	r3, [r2, #8]
 8001514:	400b      	ands	r3, r1
 8001516:	68e9      	ldr	r1, [r5, #12]
 8001518:	430b      	orrs	r3, r1
 800151a:	6093      	str	r3, [r2, #8]
 800151c:	e7c9      	b.n	80014b2 <HAL_RCC_ClockConfig+0xae>
 800151e:	6833      	ldr	r3, [r6, #0]
 8001520:	4393      	bics	r3, r2
 8001522:	4323      	orrs	r3, r4
 8001524:	6033      	str	r3, [r6, #0]
 8001526:	f7ff fa0b 	bl	8000940 <HAL_GetTick>
 800152a:	2307      	movs	r3, #7
 800152c:	4698      	mov	r8, r3
 800152e:	4b14      	ldr	r3, [pc, #80]	@ (8001580 <HAL_RCC_ClockConfig+0x17c>)
 8001530:	0007      	movs	r7, r0
 8001532:	4699      	mov	r9, r3
 8001534:	4642      	mov	r2, r8
 8001536:	6833      	ldr	r3, [r6, #0]
 8001538:	4013      	ands	r3, r2
 800153a:	42a3      	cmp	r3, r4
 800153c:	d0b6      	beq.n	80014ac <HAL_RCC_ClockConfig+0xa8>
 800153e:	f7ff f9ff 	bl	8000940 <HAL_GetTick>
 8001542:	1bc0      	subs	r0, r0, r7
 8001544:	4548      	cmp	r0, r9
 8001546:	d9f5      	bls.n	8001534 <HAL_RCC_ClockConfig+0x130>
 8001548:	2003      	movs	r0, #3
 800154a:	e7c4      	b.n	80014d6 <HAL_RCC_ClockConfig+0xd2>
 800154c:	6812      	ldr	r2, [r2, #0]
 800154e:	0392      	lsls	r2, r2, #14
 8001550:	d500      	bpl.n	8001554 <HAL_RCC_ClockConfig+0x150>
 8001552:	e78b      	b.n	800146c <HAL_RCC_ClockConfig+0x68>
 8001554:	2001      	movs	r0, #1
 8001556:	e7be      	b.n	80014d6 <HAL_RCC_ClockConfig+0xd2>
 8001558:	2b03      	cmp	r3, #3
 800155a:	d005      	beq.n	8001568 <HAL_RCC_ClockConfig+0x164>
 800155c:	6dd2      	ldr	r2, [r2, #92]	@ 0x5c
 800155e:	0792      	lsls	r2, r2, #30
 8001560:	d500      	bpl.n	8001564 <HAL_RCC_ClockConfig+0x160>
 8001562:	e783      	b.n	800146c <HAL_RCC_ClockConfig+0x68>
 8001564:	2001      	movs	r0, #1
 8001566:	e7b6      	b.n	80014d6 <HAL_RCC_ClockConfig+0xd2>
 8001568:	6e12      	ldr	r2, [r2, #96]	@ 0x60
 800156a:	0792      	lsls	r2, r2, #30
 800156c:	d500      	bpl.n	8001570 <HAL_RCC_ClockConfig+0x16c>
 800156e:	e77d      	b.n	800146c <HAL_RCC_ClockConfig+0x68>
 8001570:	2001      	movs	r0, #1
 8001572:	e7b0      	b.n	80014d6 <HAL_RCC_ClockConfig+0xd2>
 8001574:	40022000 	.word	0x40022000
 8001578:	40021000 	.word	0x40021000
 800157c:	fffff0ff 	.word	0xfffff0ff
 8001580:	00001388 	.word	0x00001388
 8001584:	080018c0 	.word	0x080018c0
 8001588:	20000000 	.word	0x20000000
 800158c:	20000008 	.word	0x20000008
 8001590:	ffff8fff 	.word	0xffff8fff

08001594 <HAL_TIM_Base_Init>:
 8001594:	b570      	push	{r4, r5, r6, lr}
 8001596:	1e04      	subs	r4, r0, #0
 8001598:	d061      	beq.n	800165e <HAL_TIM_Base_Init+0xca>
 800159a:	233d      	movs	r3, #61	@ 0x3d
 800159c:	5cc3      	ldrb	r3, [r0, r3]
 800159e:	b2da      	uxtb	r2, r3
 80015a0:	2b00      	cmp	r3, #0
 80015a2:	d04c      	beq.n	800163e <HAL_TIM_Base_Init+0xaa>
 80015a4:	233d      	movs	r3, #61	@ 0x3d
 80015a6:	2202      	movs	r2, #2
 80015a8:	54e2      	strb	r2, [r4, r3]
 80015aa:	6822      	ldr	r2, [r4, #0]
 80015ac:	4e2f      	ldr	r6, [pc, #188]	@ (800166c <HAL_TIM_Base_Init+0xd8>)
 80015ae:	6813      	ldr	r3, [r2, #0]
 80015b0:	69a5      	ldr	r5, [r4, #24]
 80015b2:	68e0      	ldr	r0, [r4, #12]
 80015b4:	6861      	ldr	r1, [r4, #4]
 80015b6:	42b2      	cmp	r2, r6
 80015b8:	d012      	beq.n	80015e0 <HAL_TIM_Base_Init+0x4c>
 80015ba:	4e2d      	ldr	r6, [pc, #180]	@ (8001670 <HAL_TIM_Base_Init+0xdc>)
 80015bc:	42b2      	cmp	r2, r6
 80015be:	d00f      	beq.n	80015e0 <HAL_TIM_Base_Init+0x4c>
 80015c0:	4e2c      	ldr	r6, [pc, #176]	@ (8001674 <HAL_TIM_Base_Init+0xe0>)
 80015c2:	42b2      	cmp	r2, r6
 80015c4:	d04d      	beq.n	8001662 <HAL_TIM_Base_Init+0xce>
 80015c6:	4e2c      	ldr	r6, [pc, #176]	@ (8001678 <HAL_TIM_Base_Init+0xe4>)
 80015c8:	42b2      	cmp	r2, r6
 80015ca:	d03d      	beq.n	8001648 <HAL_TIM_Base_Init+0xb4>
 80015cc:	4e2b      	ldr	r6, [pc, #172]	@ (800167c <HAL_TIM_Base_Init+0xe8>)
 80015ce:	42b2      	cmp	r2, r6
 80015d0:	d03a      	beq.n	8001648 <HAL_TIM_Base_Init+0xb4>
 80015d2:	2680      	movs	r6, #128	@ 0x80
 80015d4:	43b3      	bics	r3, r6
 80015d6:	432b      	orrs	r3, r5
 80015d8:	6013      	str	r3, [r2, #0]
 80015da:	62d0      	str	r0, [r2, #44]	@ 0x2c
 80015dc:	6291      	str	r1, [r2, #40]	@ 0x28
 80015de:	e012      	b.n	8001606 <HAL_TIM_Base_Init+0x72>
 80015e0:	2670      	movs	r6, #112	@ 0x70
 80015e2:	43b3      	bics	r3, r6
 80015e4:	68a6      	ldr	r6, [r4, #8]
 80015e6:	4333      	orrs	r3, r6
 80015e8:	4e25      	ldr	r6, [pc, #148]	@ (8001680 <HAL_TIM_Base_Init+0xec>)
 80015ea:	4033      	ands	r3, r6
 80015ec:	6926      	ldr	r6, [r4, #16]
 80015ee:	4333      	orrs	r3, r6
 80015f0:	2680      	movs	r6, #128	@ 0x80
 80015f2:	43b3      	bics	r3, r6
 80015f4:	432b      	orrs	r3, r5
 80015f6:	6013      	str	r3, [r2, #0]
 80015f8:	4b1c      	ldr	r3, [pc, #112]	@ (800166c <HAL_TIM_Base_Init+0xd8>)
 80015fa:	62d0      	str	r0, [r2, #44]	@ 0x2c
 80015fc:	6291      	str	r1, [r2, #40]	@ 0x28
 80015fe:	429a      	cmp	r2, r3
 8001600:	d101      	bne.n	8001606 <HAL_TIM_Base_Init+0x72>
 8001602:	6963      	ldr	r3, [r4, #20]
 8001604:	6313      	str	r3, [r2, #48]	@ 0x30
 8001606:	2301      	movs	r3, #1
 8001608:	6153      	str	r3, [r2, #20]
 800160a:	2248      	movs	r2, #72	@ 0x48
 800160c:	2000      	movs	r0, #0
 800160e:	54a3      	strb	r3, [r4, r2]
 8001610:	3a0a      	subs	r2, #10
 8001612:	54a3      	strb	r3, [r4, r2]
 8001614:	3201      	adds	r2, #1
 8001616:	54a3      	strb	r3, [r4, r2]
 8001618:	3201      	adds	r2, #1
 800161a:	54a3      	strb	r3, [r4, r2]
 800161c:	3201      	adds	r2, #1
 800161e:	54a3      	strb	r3, [r4, r2]
 8001620:	3201      	adds	r2, #1
 8001622:	54a3      	strb	r3, [r4, r2]
 8001624:	3201      	adds	r2, #1
 8001626:	54a3      	strb	r3, [r4, r2]
 8001628:	3201      	adds	r2, #1
 800162a:	54a3      	strb	r3, [r4, r2]
 800162c:	3201      	adds	r2, #1
 800162e:	54a3      	strb	r3, [r4, r2]
 8001630:	3201      	adds	r2, #1
 8001632:	54a3      	strb	r3, [r4, r2]
 8001634:	3201      	adds	r2, #1
 8001636:	54a3      	strb	r3, [r4, r2]
 8001638:	3a0a      	subs	r2, #10
 800163a:	54a3      	strb	r3, [r4, r2]
 800163c:	bd70      	pop	{r4, r5, r6, pc}
 800163e:	333c      	adds	r3, #60	@ 0x3c
 8001640:	54c2      	strb	r2, [r0, r3]
 8001642:	f7ff f84f 	bl	80006e4 <HAL_TIM_Base_MspInit>
 8001646:	e7ad      	b.n	80015a4 <HAL_TIM_Base_Init+0x10>
 8001648:	4e0d      	ldr	r6, [pc, #52]	@ (8001680 <HAL_TIM_Base_Init+0xec>)
 800164a:	4033      	ands	r3, r6
 800164c:	6926      	ldr	r6, [r4, #16]
 800164e:	4333      	orrs	r3, r6
 8001650:	2680      	movs	r6, #128	@ 0x80
 8001652:	43b3      	bics	r3, r6
 8001654:	432b      	orrs	r3, r5
 8001656:	6013      	str	r3, [r2, #0]
 8001658:	62d0      	str	r0, [r2, #44]	@ 0x2c
 800165a:	6291      	str	r1, [r2, #40]	@ 0x28
 800165c:	e7d1      	b.n	8001602 <HAL_TIM_Base_Init+0x6e>
 800165e:	2001      	movs	r0, #1
 8001660:	e7ec      	b.n	800163c <HAL_TIM_Base_Init+0xa8>
 8001662:	4e07      	ldr	r6, [pc, #28]	@ (8001680 <HAL_TIM_Base_Init+0xec>)
 8001664:	4033      	ands	r3, r6
 8001666:	6926      	ldr	r6, [r4, #16]
 8001668:	4333      	orrs	r3, r6
 800166a:	e7b2      	b.n	80015d2 <HAL_TIM_Base_Init+0x3e>
 800166c:	40012c00 	.word	0x40012c00
 8001670:	40000400 	.word	0x40000400
 8001674:	40002000 	.word	0x40002000
 8001678:	40014400 	.word	0x40014400
 800167c:	40014800 	.word	0x40014800
 8001680:	fffffcff 	.word	0xfffffcff

08001684 <HAL_TIM_ConfigClockSource>:
 8001684:	223c      	movs	r2, #60	@ 0x3c
 8001686:	b570      	push	{r4, r5, r6, lr}
 8001688:	0003      	movs	r3, r0
 800168a:	5c80      	ldrb	r0, [r0, r2]
 800168c:	2801      	cmp	r0, #1
 800168e:	d100      	bne.n	8001692 <HAL_TIM_ConfigClockSource+0xe>
 8001690:	e06f      	b.n	8001772 <HAL_TIM_ConfigClockSource+0xee>
 8001692:	2401      	movs	r4, #1
 8001694:	2002      	movs	r0, #2
 8001696:	549c      	strb	r4, [r3, r2]
 8001698:	3201      	adds	r2, #1
 800169a:	5498      	strb	r0, [r3, r2]
 800169c:	681a      	ldr	r2, [r3, #0]
 800169e:	4d4e      	ldr	r5, [pc, #312]	@ (80017d8 <HAL_TIM_ConfigClockSource+0x154>)
 80016a0:	6890      	ldr	r0, [r2, #8]
 80016a2:	4028      	ands	r0, r5
 80016a4:	6090      	str	r0, [r2, #8]
 80016a6:	6808      	ldr	r0, [r1, #0]
 80016a8:	2860      	cmp	r0, #96	@ 0x60
 80016aa:	d100      	bne.n	80016ae <HAL_TIM_ConfigClockSource+0x2a>
 80016ac:	e07a      	b.n	80017a4 <HAL_TIM_ConfigClockSource+0x120>
 80016ae:	d80b      	bhi.n	80016c8 <HAL_TIM_ConfigClockSource+0x44>
 80016b0:	2840      	cmp	r0, #64	@ 0x40
 80016b2:	d060      	beq.n	8001776 <HAL_TIM_ConfigClockSource+0xf2>
 80016b4:	d829      	bhi.n	800170a <HAL_TIM_ConfigClockSource+0x86>
 80016b6:	2820      	cmp	r0, #32
 80016b8:	d053      	beq.n	8001762 <HAL_TIM_ConfigClockSource+0xde>
 80016ba:	d850      	bhi.n	800175e <HAL_TIM_ConfigClockSource+0xda>
 80016bc:	2110      	movs	r1, #16
 80016be:	0004      	movs	r4, r0
 80016c0:	438c      	bics	r4, r1
 80016c2:	d04e      	beq.n	8001762 <HAL_TIM_ConfigClockSource+0xde>
 80016c4:	2001      	movs	r0, #1
 80016c6:	e019      	b.n	80016fc <HAL_TIM_ConfigClockSource+0x78>
 80016c8:	2480      	movs	r4, #128	@ 0x80
 80016ca:	0164      	lsls	r4, r4, #5
 80016cc:	42a0      	cmp	r0, r4
 80016ce:	d014      	beq.n	80016fa <HAL_TIM_ConfigClockSource+0x76>
 80016d0:	2480      	movs	r4, #128	@ 0x80
 80016d2:	01a4      	lsls	r4, r4, #6
 80016d4:	42a0      	cmp	r0, r4
 80016d6:	d031      	beq.n	800173c <HAL_TIM_ConfigClockSource+0xb8>
 80016d8:	2870      	cmp	r0, #112	@ 0x70
 80016da:	d1f3      	bne.n	80016c4 <HAL_TIM_ConfigClockSource+0x40>
 80016dc:	6894      	ldr	r4, [r2, #8]
 80016de:	483f      	ldr	r0, [pc, #252]	@ (80017dc <HAL_TIM_ConfigClockSource+0x158>)
 80016e0:	684d      	ldr	r5, [r1, #4]
 80016e2:	4004      	ands	r4, r0
 80016e4:	6888      	ldr	r0, [r1, #8]
 80016e6:	68c9      	ldr	r1, [r1, #12]
 80016e8:	4328      	orrs	r0, r5
 80016ea:	0209      	lsls	r1, r1, #8
 80016ec:	4301      	orrs	r1, r0
 80016ee:	2077      	movs	r0, #119	@ 0x77
 80016f0:	4321      	orrs	r1, r4
 80016f2:	6091      	str	r1, [r2, #8]
 80016f4:	6891      	ldr	r1, [r2, #8]
 80016f6:	4301      	orrs	r1, r0
 80016f8:	6091      	str	r1, [r2, #8]
 80016fa:	2000      	movs	r0, #0
 80016fc:	223d      	movs	r2, #61	@ 0x3d
 80016fe:	2101      	movs	r1, #1
 8001700:	5499      	strb	r1, [r3, r2]
 8001702:	2100      	movs	r1, #0
 8001704:	3a01      	subs	r2, #1
 8001706:	5499      	strb	r1, [r3, r2]
 8001708:	bd70      	pop	{r4, r5, r6, pc}
 800170a:	2850      	cmp	r0, #80	@ 0x50
 800170c:	d1da      	bne.n	80016c4 <HAL_TIM_ConfigClockSource+0x40>
 800170e:	6a15      	ldr	r5, [r2, #32]
 8001710:	6a16      	ldr	r6, [r2, #32]
 8001712:	6848      	ldr	r0, [r1, #4]
 8001714:	43a6      	bics	r6, r4
 8001716:	68c9      	ldr	r1, [r1, #12]
 8001718:	6216      	str	r6, [r2, #32]
 800171a:	26f0      	movs	r6, #240	@ 0xf0
 800171c:	6994      	ldr	r4, [r2, #24]
 800171e:	0109      	lsls	r1, r1, #4
 8001720:	43b4      	bics	r4, r6
 8001722:	4321      	orrs	r1, r4
 8001724:	240a      	movs	r4, #10
 8001726:	43a5      	bics	r5, r4
 8001728:	4328      	orrs	r0, r5
 800172a:	6191      	str	r1, [r2, #24]
 800172c:	6210      	str	r0, [r2, #32]
 800172e:	6891      	ldr	r1, [r2, #8]
 8001730:	482b      	ldr	r0, [pc, #172]	@ (80017e0 <HAL_TIM_ConfigClockSource+0x15c>)
 8001732:	4001      	ands	r1, r0
 8001734:	2057      	movs	r0, #87	@ 0x57
 8001736:	4301      	orrs	r1, r0
 8001738:	6091      	str	r1, [r2, #8]
 800173a:	e7de      	b.n	80016fa <HAL_TIM_ConfigClockSource+0x76>
 800173c:	6894      	ldr	r4, [r2, #8]
 800173e:	4827      	ldr	r0, [pc, #156]	@ (80017dc <HAL_TIM_ConfigClockSource+0x158>)
 8001740:	684d      	ldr	r5, [r1, #4]
 8001742:	4004      	ands	r4, r0
 8001744:	6888      	ldr	r0, [r1, #8]
 8001746:	68c9      	ldr	r1, [r1, #12]
 8001748:	4328      	orrs	r0, r5
 800174a:	0209      	lsls	r1, r1, #8
 800174c:	4301      	orrs	r1, r0
 800174e:	4321      	orrs	r1, r4
 8001750:	6091      	str	r1, [r2, #8]
 8001752:	2180      	movs	r1, #128	@ 0x80
 8001754:	6890      	ldr	r0, [r2, #8]
 8001756:	01c9      	lsls	r1, r1, #7
 8001758:	4301      	orrs	r1, r0
 800175a:	6091      	str	r1, [r2, #8]
 800175c:	e7cd      	b.n	80016fa <HAL_TIM_ConfigClockSource+0x76>
 800175e:	2830      	cmp	r0, #48	@ 0x30
 8001760:	d1b0      	bne.n	80016c4 <HAL_TIM_ConfigClockSource+0x40>
 8001762:	6891      	ldr	r1, [r2, #8]
 8001764:	4c1e      	ldr	r4, [pc, #120]	@ (80017e0 <HAL_TIM_ConfigClockSource+0x15c>)
 8001766:	4021      	ands	r1, r4
 8001768:	4301      	orrs	r1, r0
 800176a:	2007      	movs	r0, #7
 800176c:	4301      	orrs	r1, r0
 800176e:	6091      	str	r1, [r2, #8]
 8001770:	e7c3      	b.n	80016fa <HAL_TIM_ConfigClockSource+0x76>
 8001772:	2002      	movs	r0, #2
 8001774:	e7c8      	b.n	8001708 <HAL_TIM_ConfigClockSource+0x84>
 8001776:	6a15      	ldr	r5, [r2, #32]
 8001778:	6a16      	ldr	r6, [r2, #32]
 800177a:	6848      	ldr	r0, [r1, #4]
 800177c:	43a6      	bics	r6, r4
 800177e:	68c9      	ldr	r1, [r1, #12]
 8001780:	6216      	str	r6, [r2, #32]
 8001782:	26f0      	movs	r6, #240	@ 0xf0
 8001784:	6994      	ldr	r4, [r2, #24]
 8001786:	0109      	lsls	r1, r1, #4
 8001788:	43b4      	bics	r4, r6
 800178a:	4321      	orrs	r1, r4
 800178c:	240a      	movs	r4, #10
 800178e:	43a5      	bics	r5, r4
 8001790:	4328      	orrs	r0, r5
 8001792:	6191      	str	r1, [r2, #24]
 8001794:	6210      	str	r0, [r2, #32]
 8001796:	6891      	ldr	r1, [r2, #8]
 8001798:	4811      	ldr	r0, [pc, #68]	@ (80017e0 <HAL_TIM_ConfigClockSource+0x15c>)
 800179a:	4001      	ands	r1, r0
 800179c:	2047      	movs	r0, #71	@ 0x47
 800179e:	4301      	orrs	r1, r0
 80017a0:	6091      	str	r1, [r2, #8]
 80017a2:	e7aa      	b.n	80016fa <HAL_TIM_ConfigClockSource+0x76>
 80017a4:	2510      	movs	r5, #16
 80017a6:	6848      	ldr	r0, [r1, #4]
 80017a8:	68cc      	ldr	r4, [r1, #12]
 80017aa:	6a11      	ldr	r1, [r2, #32]
 80017ac:	4e0d      	ldr	r6, [pc, #52]	@ (80017e4 <HAL_TIM_ConfigClockSource+0x160>)
 80017ae:	43a9      	bics	r1, r5
 80017b0:	6211      	str	r1, [r2, #32]
 80017b2:	6991      	ldr	r1, [r2, #24]
 80017b4:	0324      	lsls	r4, r4, #12
 80017b6:	4031      	ands	r1, r6
 80017b8:	430c      	orrs	r4, r1
 80017ba:	21a0      	movs	r1, #160	@ 0xa0
 80017bc:	6a15      	ldr	r5, [r2, #32]
 80017be:	6194      	str	r4, [r2, #24]
 80017c0:	438d      	bics	r5, r1
 80017c2:	0101      	lsls	r1, r0, #4
 80017c4:	4329      	orrs	r1, r5
 80017c6:	6211      	str	r1, [r2, #32]
 80017c8:	6891      	ldr	r1, [r2, #8]
 80017ca:	4805      	ldr	r0, [pc, #20]	@ (80017e0 <HAL_TIM_ConfigClockSource+0x15c>)
 80017cc:	4001      	ands	r1, r0
 80017ce:	2067      	movs	r0, #103	@ 0x67
 80017d0:	4301      	orrs	r1, r0
 80017d2:	6091      	str	r1, [r2, #8]
 80017d4:	e791      	b.n	80016fa <HAL_TIM_ConfigClockSource+0x76>
 80017d6:	46c0      	nop			@ (mov r8, r8)
 80017d8:	ffce0088 	.word	0xffce0088
 80017dc:	ffff00ff 	.word	0xffff00ff
 80017e0:	ffcfff8f 	.word	0xffcfff8f
 80017e4:	ffff0fff 	.word	0xffff0fff

080017e8 <HAL_TIMEx_MasterConfigSynchronization>:
 80017e8:	233c      	movs	r3, #60	@ 0x3c
 80017ea:	b570      	push	{r4, r5, r6, lr}
 80017ec:	5cc3      	ldrb	r3, [r0, r3]
 80017ee:	2b01      	cmp	r3, #1
 80017f0:	d026      	beq.n	8001840 <HAL_TIMEx_MasterConfigSynchronization+0x58>
 80017f2:	233d      	movs	r3, #61	@ 0x3d
 80017f4:	2202      	movs	r2, #2
 80017f6:	54c2      	strb	r2, [r0, r3]
 80017f8:	6802      	ldr	r2, [r0, #0]
 80017fa:	4e12      	ldr	r6, [pc, #72]	@ (8001844 <HAL_TIMEx_MasterConfigSynchronization+0x5c>)
 80017fc:	6853      	ldr	r3, [r2, #4]
 80017fe:	680d      	ldr	r5, [r1, #0]
 8001800:	6894      	ldr	r4, [r2, #8]
 8001802:	42b2      	cmp	r2, r6
 8001804:	d00e      	beq.n	8001824 <HAL_TIMEx_MasterConfigSynchronization+0x3c>
 8001806:	2670      	movs	r6, #112	@ 0x70
 8001808:	43b3      	bics	r3, r6
 800180a:	432b      	orrs	r3, r5
 800180c:	6053      	str	r3, [r2, #4]
 800180e:	4b0e      	ldr	r3, [pc, #56]	@ (8001848 <HAL_TIMEx_MasterConfigSynchronization+0x60>)
 8001810:	429a      	cmp	r2, r3
 8001812:	d00f      	beq.n	8001834 <HAL_TIMEx_MasterConfigSynchronization+0x4c>
 8001814:	233d      	movs	r3, #61	@ 0x3d
 8001816:	2201      	movs	r2, #1
 8001818:	54c2      	strb	r2, [r0, r3]
 800181a:	2200      	movs	r2, #0
 800181c:	3b01      	subs	r3, #1
 800181e:	54c2      	strb	r2, [r0, r3]
 8001820:	2000      	movs	r0, #0
 8001822:	bd70      	pop	{r4, r5, r6, pc}
 8001824:	4e09      	ldr	r6, [pc, #36]	@ (800184c <HAL_TIMEx_MasterConfigSynchronization+0x64>)
 8001826:	4033      	ands	r3, r6
 8001828:	684e      	ldr	r6, [r1, #4]
 800182a:	4333      	orrs	r3, r6
 800182c:	2670      	movs	r6, #112	@ 0x70
 800182e:	43b3      	bics	r3, r6
 8001830:	431d      	orrs	r5, r3
 8001832:	6055      	str	r5, [r2, #4]
 8001834:	2380      	movs	r3, #128	@ 0x80
 8001836:	439c      	bics	r4, r3
 8001838:	688b      	ldr	r3, [r1, #8]
 800183a:	431c      	orrs	r4, r3
 800183c:	6094      	str	r4, [r2, #8]
 800183e:	e7e9      	b.n	8001814 <HAL_TIMEx_MasterConfigSynchronization+0x2c>
 8001840:	2002      	movs	r0, #2
 8001842:	e7ee      	b.n	8001822 <HAL_TIMEx_MasterConfigSynchronization+0x3a>
 8001844:	40012c00 	.word	0x40012c00
 8001848:	40000400 	.word	0x40000400
 800184c:	ff0fffff 	.word	0xff0fffff

08001850 <memset>:
 8001850:	0003      	movs	r3, r0
 8001852:	1882      	adds	r2, r0, r2
 8001854:	4293      	cmp	r3, r2
 8001856:	d100      	bne.n	800185a <memset+0xa>
 8001858:	4770      	bx	lr
 800185a:	7019      	strb	r1, [r3, #0]
 800185c:	3301      	adds	r3, #1
 800185e:	e7f9      	b.n	8001854 <memset+0x4>

08001860 <__libc_init_array>:
 8001860:	b570      	push	{r4, r5, r6, lr}
 8001862:	2600      	movs	r6, #0
 8001864:	4c0c      	ldr	r4, [pc, #48]	@ (8001898 <__libc_init_array+0x38>)
 8001866:	4d0d      	ldr	r5, [pc, #52]	@ (800189c <__libc_init_array+0x3c>)
 8001868:	1b64      	subs	r4, r4, r5
 800186a:	10a4      	asrs	r4, r4, #2
 800186c:	42a6      	cmp	r6, r4
 800186e:	d109      	bne.n	8001884 <__libc_init_array+0x24>
 8001870:	2600      	movs	r6, #0
 8001872:	f000 f819 	bl	80018a8 <_init>
 8001876:	4c0a      	ldr	r4, [pc, #40]	@ (80018a0 <__libc_init_array+0x40>)
 8001878:	4d0a      	ldr	r5, [pc, #40]	@ (80018a4 <__libc_init_array+0x44>)
 800187a:	1b64      	subs	r4, r4, r5
 800187c:	10a4      	asrs	r4, r4, #2
 800187e:	42a6      	cmp	r6, r4
 8001880:	d105      	bne.n	800188e <__libc_init_array+0x2e>
 8001882:	bd70      	pop	{r4, r5, r6, pc}
 8001884:	00b3      	lsls	r3, r6, #2
 8001886:	58eb      	ldr	r3, [r5, r3]
 8001888:	4798      	blx	r3
 800188a:	3601      	adds	r6, #1
 800188c:	e7ee      	b.n	800186c <__libc_init_array+0xc>
 800188e:	00b3      	lsls	r3, r6, #2
 8001890:	58eb      	ldr	r3, [r5, r3]
 8001892:	4798      	blx	r3
 8001894:	3601      	adds	r6, #1
 8001896:	e7f2      	b.n	800187e <__libc_init_array+0x1e>
 8001898:	08001900 	.word	0x08001900
 800189c:	08001900 	.word	0x08001900
 80018a0:	08001904 	.word	0x08001904
 80018a4:	08001900 	.word	0x08001900

080018a8 <_init>:
 80018a8:	b5f8      	push	{r3, r4, r5, r6, r7, lr}
 80018aa:	46c0      	nop			@ (mov r8, r8)
 80018ac:	bcf8      	pop	{r3, r4, r5, r6, r7}
 80018ae:	bc08      	pop	{r3}
 80018b0:	469e      	mov	lr, r3
 80018b2:	4770      	bx	lr

080018b4 <_fini>:
 80018b4:	b5f8      	push	{r3, r4, r5, r6, r7, lr}
 80018b6:	46c0      	nop			@ (mov r8, r8)
 80018b8:	bcf8      	pop	{r3, r4, r5, r6, r7}
 80018ba:	bc08      	pop	{r3}
 80018bc:	469e      	mov	lr, r3
 80018be:	4770      	bx	lr
